Task: avahi-daemon pid 492 rule r1 addr 0x230dc98
0x0230dc98  31 39 32 2e 31 36 38 2e 31 30 2e 32 30 30 0a 00   192.168.10.200..
0x0230dca8  00 60 30 02 00 00 00 00 e6 d2 fe 5e 00 00 00 00   .`0........^....
0x0230dcb8  bb 07 06 00 00 00 00 00 e6 d2 fe 5e 00 00 00 00   ...........^....
0x0230dcc8  e8 09 06 00 00 00 00 00 b0 b2 b8 5a 33 7f 00 00   ...........Z3...
0x0230dcd8  70 b3 30 02 00 00 00 00 00 00 00 00 00 00 00 00   p.0.............
0x0230dce8  41 04 00 00 00 00 00 00 78 3b ed 59 33 7f 00 00   A.......x;.Y3...
0x0230dcf8  78 3b ed 59 33 7f 00 00 e0 dc 30 02 00 00 00 00   x;.Y3.....0.....
0x0230dd08  e0 dc 30 02 00 00 00 00 00 00 00 00 00 00 00 00   ..0.............
0x0230dd18  a0 57 30 02 00 00 00 00 00 00 00 00 00 00 00 00   .W0.............
0x0230dd28  c0 8f 30 02 00 00 00 00 50 00 00 00 00 00 00 00   ..0.....P.......
0x0230dd38  70 02 00 00 00 00 00 00 00 00 00 00 33 7f 00 00   p...........3...
0x0230dd48  10 ef 30 02 00 00 00 00 10 ef 30 02 00 00 00 00   ..0.......0.....
0x0230dd58  10 ef 30 02 00 00 00 00 10 ef 30 02 00 00 00 00   ..0.......0.....
0x0230dd68  73 ef 30 02 00 00 00 00 10 0f 31 02 00 00 00 00   s.0.......1.....
0x0230dd78  00 00 00 00 00 00 00 00 10 0f 31 02 00 00 00 00   ..........1.....
0x0230dd88  00 00 00 00 00 00 00 00 00 00 00 00 00 00 00 00   ................
Task: apache2 pid 1193 rule r1 addr 0x7fe9ee172448
0x7fe9ee172448  31 39 32 2e 31 36 38 2e 31 30 2e 32 30 30 00 00   192.168.10.200..
0x7fe9ee172458  00 00 00 00 00 00 00 00 00 00 00 00 00 00 00 00   ................
0x7fe9ee172468  47 45 54 20 2f 69 6e 64 65 78 2e 70 68 70 3f 6f   GET./index.php?o
0x7fe9ee172478  70 74 69 6f 6e 3d 63 6f 6d 5f 61 6a 61 78 26 66   ption=com_ajax&f
0x7fe9ee172488  6f 72 6d 61 74 3d 6a 73 6f 6e 20 48 54 54 50 2f   ormat=json.HTTP/
0x7fe9ee172498  31 2e 31 00 4e 2b 53 45 4c 45 43 54 20 31 2c 00   1.1.N+SELECT.1,.
0x7fe9ee1724a8  55 4f 43 6f 6e 74 72 6f 6c 2e 75 6f 63 6f 6e 74   UOControl.uocont
0x7fe9ee1724b8  72 6f 6c 2e 63 6f 6d 00 00 00 00 00 00 00 00 00   rol.com.........
0x7fe9ee1724c8  00 00 00 00 00 00 00 00 00 00 00 00 00 00 00 00   ................
0x7fe9ee1724d8  00 00 00 00 00 00 00 00 00 00 00 00 00 00 00 00   ................
0x7fe9ee1724e8  00 00 00 00 00 00 00 00 00 00 00 00 00 00 00 00   ................
0x7fe9ee1724f8  00 00 00 00 00 00 00 00 00 00 00 00 00 00 00 00   ................
0x7fe9ee172508  00 00 00 00 00 00 00 00 00 00 00 00 00 00 00 00   ................
0x7fe9ee172518  00 00 00 00 00 00 00 00 00 00 00 00 00 00 00 00   ................
0x7fe9ee172528  00 00 00 00 00 00 00 00 00 00 00 00 00 00 00 00   ................
0x7fe9ee172538  00 00 00 00 00 00 00 00 00 00 00 00 00 00 00 00   ................
Task: sshd pid 2213 rule r1 addr 0x7f8529d9f760
0x7f8529d9f760  31 39 32 2e 31 36 38 2e 31 30 2e 32 30 30 00 00   192.168.10.200..
0x7f8529d9f770  01 bf b8 fe 15 d1 d3 a2 d2 5a ba 61 29 25 90 fa   .........Z.a)%..
0x7f8529d9f780  30 00 00 00 00 00 00 00 31 00 00 00 00 00 00 00   0.......1.......
0x7f8529d9f790  cd c5 23 10 17 3b 11 74 6e 83 19 b1 b9 fa b1 09   ..#..;.tn.......
0x7f8529d9f7a0  01 bf b8 fe 15 d1 d3 a2 d2 5a ba 61 29 25 90 fa   .........Z.a)%..
0x7f8529d9f7b0  00 00 00 00 00 00 00 00 21 00 00 00 00 00 00 00   ........!.......
0x7f8529d9f7c0  4c aa cd 26 85 7f 00 00 fe ea 54 77 20 f2 05 b1   L..&......Tw....
0x7f8529d9f7d0  20 00 00 00 00 00 00 00 31 00 00 00 00 00 00 00   ........1.......
0x7f8529d9f7e0  e0 18 d9 2e c1 eb 71 cd ac 3e e7 1e e7 c0 35 35   ......q..>....55
0x7f8529d9f7f0  6f 1d 5e 94 03 25 81 2f 97 19 0c ce 42 5f 97 ab   o.^..%./....B_..
0x7f8529d9f800  00 00 00 00 00 00 00 00 f1 00 00 00 00 00 00 00   ................
0x7f8529d9f810  e0 3d 04 28 85 7f 00 00 d0 21 da 29 85 7f 00 00   .=.(.....!.)....
0x7f8529d9f820  b0 22 da 29 85 7f 00 00 04 00 00 00 04 00 00 00   .".)............
0x7f8529d9f830  00 00 00 00 00 00 00 00 e0 22 da 29 85 7f 00 00   .........".)....
0x7f8529d9f840  01 00 00 00 01 00 00 00 00 00 00 00 00 00 00 00   ................
0x7f8529d9f850  9f 01 00 00 01 00 00 00 04 00 00 00 00 00 00 00   ................
Task: sshd pid 2213 rule r1 addr 0x7f8529da2160
0x7f8529da2160  31 39 32 2e 31 36 38 2e 31 30 2e 32 30 30 00 00   192.168.10.200..
0x7f8529da2170  20 00 00 00 00 00 00 00 21 00 00 00 00 00 00 00   ........!.......
0x7f8529da2180  01 00 00 00 00 00 00 00 04 00 00 00 04 00 00 00   ................
0x7f8529da2190  00 00 00 00 01 00 00 00 31 00 00 00 00 00 00 00   ........1.......
0x7f8529da21a0  c0 f7 d9 29 85 7f 00 00 00 00 00 00 00 00 00 00   ...)............
0x7f8529da21b0  00 00 00 00 00 00 00 00 e7 93 3a aa d8 35 c6 5a   ..........:..5.Z
0x7f8529da21c0  30 00 00 00 00 00 00 00 61 00 00 00 00 00 00 00   0.......a.......
0x7f8529da21d0  e0 3d 04 28 85 7f 00 00 30 22 da 29 85 7f 00 00   .=.(....0".)....
0x7f8529da21e0  04 00 00 00 04 00 00 00 00 00 00 00 00 00 00 00   ................
0x7f8529da21f0  60 22 da 29 85 7f 00 00 04 00 00 00 04 00 00 00   `".)............
0x7f8529da2200  00 00 00 00 00 00 00 00 90 22 da 29 85 7f 00 00   .........".)....
0x7f8529da2210  01 00 00 00 01 00 00 00 00 00 00 00 00 00 00 00   ................
0x7f8529da2220  01 00 00 00 00 00 00 00 31 00 00 00 00 00 00 00   ........1.......
0x7f8529da2230  96 c2 98 d8 45 39 a1 f4 a0 33 eb 2d 81 7d 03 77   ....E9...3.-.}.w
0x7f8529da2240  f2 40 a4 63 e5 e6 bc f8 47 42 2c e1 f2 d1 17 6b   .@.c....GB,....k
0x7f8529da2250  00 00 00 00 00 00 00 00 31 00 00 00 00 00 00 00   ........1.......
Task: sshd pid 2366 rule r1 addr 0x7f8529d9f760
0x7f8529d9f760  31 39 32 2e 31 36 38 2e 31 30 2e 32 30 30 00 00   192.168.10.200..
0x7f8529d9f770  01 bf b8 fe 15 d1 d3 a2 d2 5a ba 61 29 25 90 fa   .........Z.a)%..
0x7f8529d9f780  30 00 00 00 00 00 00 00 31 00 00 00 00 00 00 00   0.......1.......
0x7f8529d9f790  60 f4 d9 29 85 7f 00 00 20 fe dc 29 85 7f 00 00   `..).......)....
0x7f8529d9f7a0  f0 20 da 29 85 7f 00 00 d2 5a ba 61 29 25 90 fa   ...).....Z.a)%..
0x7f8529d9f7b0  30 00 00 00 00 00 00 00 21 00 00 00 00 00 00 00   0.......!.......
0x7f8529d9f7c0  4c aa cd 26 85 7f 00 00 fe ea 54 77 20 f2 05 b1   L..&......Tw....
0x7f8529d9f7d0  20 00 00 00 00 00 00 00 b1 00 00 00 00 00 00 00   ................
0x7f8529d9f7e0  50 aa da 29 85 7f 00 00 20 e9 d9 29 85 7f 00 00   P..).......)....
0x7f8529d9f7f0  d0 f6 d9 29 85 7f 00 00 f0 f6 d9 29 85 7f 00 00   ...).......)....
0x7f8529d9f800  40 e9 d9 29 85 7f 00 00 90 fb d9 29 85 7f 00 00   @..).......)....
0x7f8529d9f810  b0 fb d9 29 85 7f 00 00 e0 66 dc 29 85 7f 00 00   ...).....f.)....
0x7f8529d9f820  20 f2 d9 29 85 7f 00 00 40 f2 d9 29 85 7f 00 00   ...)....@..)....
0x7f8529d9f830  60 f2 d9 29 85 7f 00 00 80 f2 d9 29 85 7f 00 00   `..).......)....
0x7f8529d9f840  30 f3 d9 29 85 7f 00 00 50 f3 d9 29 85 7f 00 00   0..)....P..)....
0x7f8529d9f850  80 20 da 29 85 7f 00 00 a0 20 da 29 85 7f 00 00   ...).......)....
Task: sshd pid 2366 rule r1 addr 0x7f8529da2160
0x7f8529da2160  31 39 32 2e 31 36 38 2e 31 30 2e 32 30 30 00 00   192.168.10.200..
0x7f8529da2170  20 00 00 00 00 00 00 00 21 00 00 00 00 00 00 00   ........!.......
0x7f8529da2180  20 dc ce 25 85 7f 00 00 fe ea 94 86 7b b9 0f 4e   ...%........{..N
0x7f8529da2190  20 00 00 00 00 00 00 00 31 00 00 00 00 00 00 00   ........1.......
0x7f8529da21a0  c0 f7 d9 29 85 7f 00 00 00 00 00 00 00 00 00 00   ...)............
0x7f8529da21b0  00 00 00 00 00 00 00 00 e7 93 3a aa d8 35 c6 5a   ..........:..5.Z
0x7f8529da21c0  30 00 00 00 00 00 00 00 51 01 00 00 00 00 00 00   0.......Q.......
0x7f8529da21d0  b8 78 f1 26 85 7f 00 00 b8 78 f1 26 85 7f 00 00   .x.&.....x.&....
0x7f8529da21e0  04 00 00 00 04 00 00 00 00 00 00 00 00 80 00 00   ................
0x7f8529da21f0  00 00 00 00 00 00 00 00 04 00 00 00 04 00 00 00   ................
0x7f8529da2200  00 00 00 00 00 80 00 00 00 00 00 00 00 00 00 00   ................
0x7f8529da2210  01 00 00 00 01 00 00 00 00 00 00 00 00 80 00 00   ................
0x7f8529da2220  01 00 00 00 00 00 00 00 f1 00 00 00 00 00 00 00   ................
0x7f8529da2230  d0 f7 d9 29 85 7f 00 00 90 1f da 29 85 7f 00 00   ...).......)....
0x7f8529da2240  f2 40 a4 63 e5 e6 bc f8 47 42 2c e1 f2 d1 17 6b   .@.c....GB,....k
0x7f8529da2250  00 00 00 00 00 00 00 00 c1 00 00 00 00 00 00 00   ................
Task: bash pid 2367 rule r1 addr 0x22b02c8
0x022b02c8  31 39 32 2e 31 36 38 2e 31 30 2e 32 30 30 20 34   192.168.10.200.4
0x022b02d8  37 39 33 38 20 32 32 00 18 00 00 00 00 00 00 00   7938.22.........
0x022b02e8  00 00 00 00 00 00 00 00 00 00 00 00 00 00 00 00   ................
0x022b02f8  00 00 00 00 00 00 00 00 f7 03 55 55 23 00 00 00   ..........UU#...
0x022b0308  53 53 48 5f 43 4c 49 45 4e 54 3d 31 39 32 2e 31   SSH_CLIENT=192.1
0x022b0318  36 38 2e 31 30 2e 32 30 30 20 34 37 39 33 38 20   68.10.200.47938.
0x022b0328  32 32 00 23 00 00 00 00 00 00 00 00 00 00 00 00   22.#............
0x022b0338  00 00 00 00 00 00 00 00 f7 03 55 55 30 00 00 00   ..........UU0...
0x022b0348  88 8b 2a 02 00 00 00 00 c8 03 2b 02 00 00 00 00   ..*.......+.....
0x022b0358  08 04 2b 02 00 00 00 00 00 00 00 00 00 00 00 00   ..+.............
0x022b0368  00 00 00 00 00 00 00 00 01 80 00 00 00 00 00 00   ................
0x022b0378  30 00 00 00 00 00 00 00 f7 03 55 55 20 00 00 00   0.........UU....
0x022b0388  00 00 00 00 00 00 00 00 a8 8b 2a 02 00 00 00 00   ..........*.....
0x022b0398  48 03 2b 02 00 00 00 00 35 94 f1 50 00 00 00 00   H.+.....5..P....
0x022b03a8  20 00 00 00 00 00 00 00 00 00 00 00 00 00 00 00   ................
0x022b03b8  00 00 00 00 00 00 00 00 f7 03 55 55 25 00 00 00   ..........UU%...
Task: bash pid 2367 rule r1 addr 0x22b0313
0x022b0313  31 39 32 2e 31 36 38 2e 31 30 2e 32 30 30 20 34   192.168.10.200.4
0x022b0323  37 39 33 38 20 32 32 00 23 00 00 00 00 00 00 00   7938.22.#.......
0x022b0333  00 00 00 00 00 00 00 00 00 00 00 00 00 f7 03 55   ...............U
0x022b0343  55 30 00 00 00 88 8b 2a 02 00 00 00 00 c8 03 2b   U0.....*.......+
0x022b0353  02 00 00 00 00 08 04 2b 02 00 00 00 00 00 00 00   .......+........
0x022b0363  00 00 00 00 00 00 00 00 00 00 00 00 00 01 80 00   ................
0x022b0373  00 00 00 00 00 30 00 00 00 00 00 00 00 f7 03 55   .....0.........U
0x022b0383  55 20 00 00 00 00 00 00 00 00 00 00 00 a8 8b 2a   U..............*
0x022b0393  02 00 00 00 00 48 03 2b 02 00 00 00 00 35 94 f1   .....H.+.....5..
0x022b03a3  50 00 00 00 00 20 00 00 00 00 00 00 00 00 00 00   P...............
0x022b03b3  00 00 00 00 00 00 00 00 00 00 00 00 00 f7 03 55   ...............U
0x022b03c3  55 25 00 00 00 31 39 32 2e 31 36 38 2e 31 30 2e   U%...192.168.10.
0x022b03d3  32 30 30 20 34 37 39 33 38 20 31 39 32 2e 31 36   200.47938.192.16
0x022b03e3  38 2e 31 30 2e 32 20 32 32 00 25 00 00 00 00 00   8.10.2.22.%.....
0x022b03f3  00 00 00 00 00 00 00 00 00 00 00 00 00 f7 03 55   ...............U
0x022b0403  55 34 00 00 00 53 53 48 5f 43 4f 4e 4e 45 43 54   U4...SSH_CONNECT
Task: bash pid 2367 rule r1 addr 0x22b03c8
0x022b03c8  31 39 32 2e 31 36 38 2e 31 30 2e 32 30 30 20 34   192.168.10.200.4
0x022b03d8  37 39 33 38 20 31 39 32 2e 31 36 38 2e 31 30 2e   7938.192.168.10.
0x022b03e8  32 20 32 32 00 25 00 00 00 00 00 00 00 00 00 00   2.22.%..........
0x022b03f8  00 00 00 00 00 00 00 00 f7 03 55 55 34 00 00 00   ..........UU4...
0x022b0408  53 53 48 5f 43 4f 4e 4e 45 43 54 49 4f 4e 3d 31   SSH_CONNECTION=1
0x022b0418  39 32 2e 31 36 38 2e 31 30 2e 32 30 30 20 34 37   92.168.10.200.47
0x022b0428  39 33 38 20 31 39 32 2e 31 36 38 2e 31 30 2e 32   938.192.168.10.2
0x022b0438  20 32 32 00 34 00 00 00 f7 03 55 55 30 00 00 00   .22.4.....UU0...
0x022b0448  c8 8b 2a 02 00 00 00 00 08 8c 2a 02 00 00 00 00   ..*.......*.....
0x022b0458  28 8c 2a 02 00 00 00 00 00 00 00 00 00 00 00 00   (.*.............
0x022b0468  00 00 00 00 00 00 00 00 01 80 00 00 00 00 00 00   ................
0x022b0478  30 00 00 00 00 00 00 00 f7 03 55 55 20 00 00 00   0.........UU....
0x022b0488  00 00 00 00 00 00 00 00 e8 8b 2a 02 00 00 00 00   ..........*.....
0x022b0498  48 04 2b 02 00 00 00 00 8e ca 12 70 00 00 00 00   H.+........p....
0x022b04a8  20 00 00 00 00 00 00 00 00 00 00 00 00 00 00 00   ................
0x022b04b8  00 00 00 00 00 00 00 00 f7 03 55 55 30 00 00 00   ..........UU0...
Task: bash pid 2367 rule r1 addr 0x22b0417
0x022b0417  31 39 32 2e 31 36 38 2e 31 30 2e 32 30 30 20 34   192.168.10.200.4
0x022b0427  37 39 33 38 20 31 39 32 2e 31 36 38 2e 31 30 2e   7938.192.168.10.
0x022b0437  32 20 32 32 00 34 00 00 00 f7 03 55 55 30 00 00   2.22.4.....UU0..
0x022b0447  00 c8 8b 2a 02 00 00 00 00 08 8c 2a 02 00 00 00   ...*.......*....
0x022b0457  00 28 8c 2a 02 00 00 00 00 00 00 00 00 00 00 00   .(.*............
0x022b0467  00 00 00 00 00 00 00 00 00 01 80 00 00 00 00 00   ................
0x022b0477  00 30 00 00 00 00 00 00 00 f7 03 55 55 20 00 00   .0.........UU...
0x022b0487  00 00 00 00 00 00 00 00 00 e8 8b 2a 02 00 00 00   ...........*....
0x022b0497  00 48 04 2b 02 00 00 00 00 8e ca 12 70 00 00 00   .H.+........p...
0x022b04a7  00 20 00 00 00 00 00 00 00 00 00 00 00 00 00 00   ................
0x022b04b7  00 00 00 00 00 00 00 00 00 f7 03 55 55 30 00 00   ...........UU0..
0x022b04c7  00 48 8c 2a 02 00 00 00 00 88 8c 2a 02 00 00 00   .H.*.......*....
0x022b04d7  00 a8 8c 2a 02 00 00 00 00 00 00 00 00 00 00 00   ...*............
0x022b04e7  00 00 00 00 00 00 00 00 00 01 80 00 00 00 00 00   ................
0x022b04f7  00 30 00 00 00 00 00 00 00 f7 03 55 55 20 00 00   .0.........UU...
0x022b0507  00 08 02 2b 02 00 00 00 00 68 8c 2a 02 00 00 00   ...+.....h.*....
Task: bash pid 2367 rule r1 addr 0x22b3bd3
0x022b3bd3  31 39 32 2e 31 36 38 2e 31 30 2e 32 30 30 20 34   192.168.10.200.4
0x022b3be3  37 39 33 38 20 32 32 00 23 00 00 00 00 00 00 00   7938.22.#.......
0x022b3bf3  00 00 00 00 00 00 00 00 00 00 00 00 00 f7 03 55   ...............U
0x022b3c03  55 17 00 00 00 4c 43 5f 4e 55 4d 45 52 49 43 3d   U....LC_NUMERIC=
0x022b3c13  65 73 5f 45 53 2e 55 54 46 2d 38 00 17 00 00 00   es_ES.UTF-8.....
0x022b3c23  1b 00 00 00 00 00 00 00 00 00 00 00 00 00 00 00   ................
0x022b3c33  00 00 00 00 00 00 00 00 00 00 00 00 00 f7 02 55   ...............U
0x022b3c43  55 13 00 00 00 53 53 48 5f 54 54 59 3d 2f 64 65   U....SSH_TTY=/de
0x022b3c53  76 2f 70 74 73 2f 30 00 13 00 00 00 00 f7 02 55   v/pts/0........U
0x022b3c63  55 0f 00 00 00 55 53 45 52 3d 75 6f 63 6f 6e 74   U....USER=uocont
0x022b3c73  72 6f 6c 00 0f 00 00 00 00 00 00 00 00 f7 03 55   rol............U
0x022b3c83  55 19 00 00 00 4c 43 5f 54 45 4c 45 50 48 4f 4e   U....LC_TELEPHON
0x022b3c93  45 3d 65 73 5f 45 53 2e 55 54 46 2d 38 00 19 00   E=es_ES.UTF-8...
0x022b3ca3  00 00 cf 1e 00 00 00 00 00 00 00 00 00 00 00 00   ................
0x022b3cb3  00 00 00 00 00 00 00 00 00 00 00 00 00 f7 03 55   ...............U
0x022b3cc3  55 19 00 00 00 4d 41 49 4c 3d 2f 76 61 72 2f 6d   U....MAIL=/var/m
Task: bash pid 2367 rule r1 addr 0x22b3e97
0x022b3e97  31 39 32 2e 31 36 38 2e 31 30 2e 32 30 30 20 34   192.168.10.200.4
0x022b3ea7  37 39 33 38 20 31 39 32 2e 31 36 38 2e 31 30 2e   7938.192.168.10.
0x022b3eb7  32 20 32 32 00 34 00 00 00 f7 02 55 55 14 00 00   2.22.4.....UU...
0x022b3ec7  00 4c 43 5f 54 49 4d 45 3d 65 73 5f 45 53 2e 55   .LC_TIME=es_ES.U
0x022b3ed7  54 46 2d 38 00 14 00 00 00 f7 02 55 55 14 00 00   TF-8.......UU...
0x022b3ee7  00 4c 43 5f 4e 41 4d 45 3d 65 73 5f 45 53 2e 55   .LC_NAME=es_ES.U
0x022b3ef7  54 46 2d 38 00 14 00 00 00 f7 02 55 55 0c 00 00   TF-8.......UU...
0x022b3f07  00 65 73 5f 45 53 2e 55 54 46 2d 38 00 0c 00 00   .es_ES.UTF-8....
0x022b3f17  00 00 00 00 00 00 00 00 00 f7 02 55 55 0c 00 00   ...........UU...
0x022b3f27  00 65 73 5f 45 53 2e 55 54 46 2d 38 00 0c 00 00   .es_ES.UTF-8....
0x022b3f37  00 00 00 00 00 00 00 00 00 54 03 55 55 20 00 00   .........T.UU...
0x022b3f47  00 c0 3f 2b 02 00 00 00 00 cf cf cf cf cf cf cf   ..?+............
0x022b3f57  cf cf cf cf cf cf cf cf cf cf cf cf cf cf cf cf   ................
0x022b3f67  cf 20 00 00 00 00 00 00 00 00 00 00 00 00 00 00   ................
0x022b3f77  00 00 00 00 00 00 00 00 00 f7 02 55 55 10 00 00   ...........UU...
0x022b3f87  00 50 05 4b 00 00 00 00 00 40 36 46 00 00 00 00   .P.K.....@6F....
Task: bash pid 2367 rule r1 addr 0x7fff6dd24f2c
0x7fff6dd24f2c  31 39 32 2e 31 36 38 2e 31 30 2e 32 30 30 20 34   192.168.10.200.4
0x7fff6dd24f3c  37 39 33 38 20 32 32 00 53 53 48 5f 43 4f 4e 4e   7938.22.SSH_CONN
0x7fff6dd24f4c  45 43 54 49 4f 4e 3d 31 39 32 2e 31 36 38 2e 31   ECTION=192.168.1
0x7fff6dd24f5c  30 2e 32 30 30 20 34 37 39 33 38 20 31 39 32 2e   0.200.47938.192.
0x7fff6dd24f6c  31 36 38 2e 31 30 2e 32 20 32 32 00 53 53 48 5f   168.10.2.22.SSH_
0x7fff6dd24f7c  54 54 59 3d 2f 64 65 76 2f 70 74 73 2f 30 00 54   TTY=/dev/pts/0.T
0x7fff6dd24f8c  45 52 4d 3d 78 74 65 72 6d 2d 32 35 36 63 6f 6c   ERM=xterm-256col
0x7fff6dd24f9c  6f 72 00 58 44 47 5f 53 45 53 53 49 4f 4e 5f 43   or.XDG_SESSION_C
0x7fff6dd24fac  4f 4f 4b 49 45 3d 61 62 66 64 37 64 31 33 37 31   OOKIE=abfd7d1371
0x7fff6dd24fbc  34 39 65 37 64 34 32 38 64 33 33 61 30 61 30 30   49e7d428d33a0a00
0x7fff6dd24fcc  30 30 30 31 33 66 2d 31 35 39 33 37 35 38 36 38   00013f-159375868
0x7fff6dd24fdc  39 2e 35 39 34 30 39 34 2d 38 38 33 36 32 36 39   9.594094-8836269
0x7fff6dd24fec  32 00 2f 62 69 6e 2f 62 61 73 68 00 00 00 00 00   2./bin/bash.....
0x7fff6dd24ffc  00 00 00 00 00 00 00 00 00 00 00 00 00 00 00 00   ................
0x7fff6dd2500c  00 00 00 00 00 00 00 00 00 00 00 00 00 00 00 00   ................
0x7fff6dd2501c  00 00 00 00 00 00 00 00 00 00 00 00 00 00 00 00   ................
Task: bash pid 2367 rule r1 addr 0x7fff6dd24f53
0x7fff6dd24f53  31 39 32 2e 31 36 38 2e 31 30 2e 32 30 30 20 34   192.168.10.200.4
0x7fff6dd24f63  37 39 33 38 20 31 39 32 2e 31 36 38 2e 31 30 2e   7938.192.168.10.
0x7fff6dd24f73  32 20 32 32 00 53 53 48 5f 54 54 59 3d 2f 64 65   2.22.SSH_TTY=/de
0x7fff6dd24f83  76 2f 70 74 73 2f 30 00 54 45 52 4d 3d 78 74 65   v/pts/0.TERM=xte
0x7fff6dd24f93  72 6d 2d 32 35 36 63 6f 6c 6f 72 00 58 44 47 5f   rm-256color.XDG_
0x7fff6dd24fa3  53 45 53 53 49 4f 4e 5f 43 4f 4f 4b 49 45 3d 61   SESSION_COOKIE=a
0x7fff6dd24fb3  62 66 64 37 64 31 33 37 31 34 39 65 37 64 34 32   bfd7d137149e7d42
0x7fff6dd24fc3  38 64 33 33 61 30 61 30 30 30 30 30 31 33 66 2d   8d33a0a0000013f-
0x7fff6dd24fd3  31 35 39 33 37 35 38 36 38 39 2e 35 39 34 30 39   1593758689.59409
0x7fff6dd24fe3  34 2d 38 38 33 36 32 36 39 32 00 2f 62 69 6e 2f   4-88362692./bin/
0x7fff6dd24ff3  62 61 73 68 00 00 00 00 00 00 00 00 00 00 00 00   bash............
0x7fff6dd25003  00 00 00 00 00 00 00 00 00 00 00 00 00 00 00 00   ................
0x7fff6dd25013  00 00 00 00 00 00 00 00 00 00 00 00 00 00 00 00   ................
0x7fff6dd25023  00 00 00 00 00 00 00 00 00 00 00 00 00 00 00 00   ................
0x7fff6dd25033  00 00 00 00 00 00 00 00 00 00 00 00 00 00 00 00   ................
0x7fff6dd25043  00 00 00 00 00 00 00 00 00 00 00 00 00 00 00 00   ................
Task: smbd pid 2928 rule r1 addr 0x7f23c26c2d20
0x7f23c26c2d20  31 39 32 2e 31 36 38 2e 31 30 2e 32 30 30 00 00   192.168.10.200..
0x7f23c26c2d30  f0 00 00 00 00 00 00 00 c0 00 00 00 00 00 00 00   ................
0x7f23c26c2d40  a0 27 6c c2 23 7f 00 00 60 3d 6c c2 23 7f 00 00   .'l.#...`=l.#...
0x7f23c26c2d50  00 00 00 00 00 00 00 00 f0 2b 6c c2 23 7f 00 00   .........+l.#...
0x7f23c26c2d60  00 00 00 00 00 00 00 00 00 00 00 00 00 00 00 00   ................
0x7f23c26c2d70  ae f7 9d c1 23 7f 00 00 60 00 00 00 00 00 00 00   ....#...`.......
0x7f23c26c2d80  70 0c 15 e8 00 00 00 00 00 00 00 00 00 00 00 00   p...............
0x7f23c26c2d90  30 69 5f c1 23 7f 00 00 d0 64 5f c1 23 7f 00 00   0i_.#....d_.#...
0x7f23c26c2da0  e0 65 5f c1 23 7f 00 00 70 65 5f c1 23 7f 00 00   .e_.#...pe_.#...
0x7f23c26c2db0  50 64 5f c1 23 7f 00 00 20 64 5f c1 23 7f 00 00   Pd_.#....d_.#...
0x7f23c26c2dc0  f0 63 5f c1 23 7f 00 00 c0 63 5f c1 23 7f 00 00   .c_.#....c_.#...
0x7f23c26c2dd0  90 63 5f c1 23 7f 00 00 80 64 5f c1 23 7f 00 00   .c_.#....d_.#...
0x7f23c26c2de0  40 2c 6c c2 23 7f 00 00 00 00 00 00 00 00 00 00   @,l.#...........
0x7f23c26c2df0  00 00 00 00 00 00 00 00 61 00 00 00 00 00 00 00   ........a.......
0x7f23c26c2e00  00 00 00 00 00 00 00 00 00 00 00 00 00 00 00 00   ................
0x7f23c26c2e10  f0 2b 6c c2 23 7f 00 00 60 2e 6c c2 23 7f 00 00   .+l.#...`.l.#...
Task: smbd pid 2931 rule r1 addr 0x7f23c10db0d4
0x7f23c10db0d4  31 39 32 2e 31 36 38 2e 31 30 2e 32 30 30 00 00   192.168.10.200..
0x7f23c10db0e4  00 00 00 00 00 00 00 00 75 6f 63 6f 6e 74 72 6f   ........uocontro
0x7f23c10db0f4  6c 63 6c 69 65 6e 74 65 2d 70 63 00 00 00 00 00   lcliente-pc.....
0x7f23c10db104  00 00 00 00 00 00 00 00 00 00 00 00 00 00 00 00   ................
0x7f23c10db114  00 00 00 00 00 00 00 00 00 00 00 00 00 00 00 00   ................
0x7f23c10db124  00 00 00 00 00 00 00 00 00 00 00 00 00 00 00 00   ................
0x7f23c10db134  00 00 00 00 00 00 00 00 00 00 00 00 00 00 00 00   ................
0x7f23c10db144  00 00 00 00 00 00 00 00 00 00 00 00 00 00 00 00   ................
0x7f23c10db154  00 00 00 00 00 00 00 00 00 00 00 00 00 00 00 00   ................
0x7f23c10db164  00 00 00 00 00 00 00 00 00 00 00 00 00 00 00 00   ................
0x7f23c10db174  00 00 00 00 00 00 00 00 00 00 00 00 00 00 00 00   ................
0x7f23c10db184  00 00 00 00 00 00 00 00 00 00 00 00 00 00 00 00   ................
0x7f23c10db194  00 00 00 00 00 00 00 00 00 00 00 00 00 00 00 00   ................
0x7f23c10db1a4  00 00 00 00 00 00 00 00 00 00 00 00 00 00 00 00   ................
0x7f23c10db1b4  00 00 00 00 00 00 00 00 00 00 00 00 00 00 00 00   ................
0x7f23c10db1c4  00 00 00 00 00 00 00 00 00 00 00 00 00 00 00 00   ................
Task: smbd pid 2931 rule r1 addr 0x7f23c10db534
0x7f23c10db534  31 39 32 2e 31 36 38 2e 31 30 2e 32 30 30 00 00   192.168.10.200..
0x7f23c10db544  00 00 00 00 00 00 00 00 75 6f 63 6f 6e 74 72 6f   ........uocontro
0x7f23c10db554  6c 63 6c 69 65 6e 74 65 2d 70 63 00 00 00 00 00   lcliente-pc.....
0x7f23c10db564  00 00 00 00 00 00 00 00 00 00 00 00 00 00 00 00   ................
0x7f23c10db574  00 00 00 00 00 00 00 00 00 00 00 00 00 00 00 00   ................
0x7f23c10db584  00 00 00 00 00 00 00 00 00 00 00 00 00 00 00 00   ................
0x7f23c10db594  00 00 00 00 00 00 00 00 00 00 00 00 00 00 00 00   ................
0x7f23c10db5a4  00 00 00 00 00 00 00 00 00 00 00 00 00 00 00 00   ................
0x7f23c10db5b4  00 00 00 00 00 00 00 00 00 00 00 00 00 00 00 00   ................
0x7f23c10db5c4  00 00 00 00 00 00 00 00 00 00 00 00 00 00 00 00   ................
0x7f23c10db5d4  00 00 00 00 00 00 00 00 00 00 00 00 00 00 00 00   ................
0x7f23c10db5e4  00 00 00 00 00 00 00 00 00 00 00 00 00 00 00 00   ................
0x7f23c10db5f4  00 00 00 00 00 00 00 00 00 00 00 00 00 00 00 00   ................
0x7f23c10db604  00 00 00 00 00 00 00 00 00 00 00 00 00 00 00 00   ................
0x7f23c10db614  00 00 00 00 00 00 00 00 00 00 00 00 00 00 00 00   ................
0x7f23c10db624  00 00 00 00 00 00 00 00 00 00 00 00 00 00 00 00   ................
Task: smbd pid 2931 rule r1 addr 0x7f23c10db994
0x7f23c10db994  31 39 32 2e 31 36 38 2e 31 30 2e 32 30 30 00 00   192.168.10.200..
0x7f23c10db9a4  00 00 00 00 00 00 00 00 00 00 00 00 00 00 00 00   ................
0x7f23c10db9b4  00 00 00 00 00 00 00 00 00 00 00 00 00 00 00 00   ................
0x7f23c10db9c4  00 00 00 00 00 00 00 00 00 00 00 00 00 00 00 00   ................
0x7f23c10db9d4  00 00 00 00 00 00 00 00 00 00 00 00 00 00 00 00   ................
0x7f23c10db9e4  00 00 00 00 00 00 00 00 00 00 00 00 00 00 00 00   ................
0x7f23c10db9f4  00 00 00 00 00 00 00 00 00 00 00 00 00 00 00 00   ................
0x7f23c10dba04  00 00 00 00 00 00 00 00 00 00 00 00 00 00 00 00   ................
0x7f23c10dba14  00 00 00 00 00 00 00 00 00 00 00 00 00 00 00 00   ................
0x7f23c10dba24  00 00 00 00 00 00 00 00 00 00 00 00 00 00 00 00   ................
0x7f23c10dba34  00 00 00 00 00 00 00 00 00 00 00 00 00 00 00 00   ................
0x7f23c10dba44  00 00 00 00 00 00 00 00 00 00 00 00 00 00 00 00   ................
0x7f23c10dba54  00 00 00 00 00 00 00 00 00 00 00 00 00 00 00 00   ................
0x7f23c10dba64  00 00 00 00 00 00 00 00 00 00 00 00 00 00 00 00   ................
0x7f23c10dba74  00 00 00 00 00 00 00 00 00 00 00 00 00 00 00 00   ................
0x7f23c10dba84  00 00 00 00 00 00 00 00 00 00 00 00 00 00 00 00   ................
Task: smbd pid 2931 rule r1 addr 0x7f23c10dbdf4
0x7f23c10dbdf4  31 39 32 2e 31 36 38 2e 31 30 2e 32 30 30 00 00   192.168.10.200..
0x7f23c10dbe04  00 00 00 00 00 00 00 00 00 00 00 00 00 00 00 00   ................
0x7f23c10dbe14  00 00 00 00 00 00 00 00 00 00 00 00 00 00 00 00   ................
0x7f23c10dbe24  00 00 00 00 00 00 00 00 00 00 00 00 00 00 00 00   ................
0x7f23c10dbe34  00 00 00 00 00 00 00 00 00 00 00 00 00 00 00 00   ................
0x7f23c10dbe44  00 00 00 00 00 00 00 00 00 00 00 00 00 00 00 00   ................
0x7f23c10dbe54  00 00 00 00 00 00 00 00 00 00 00 00 00 00 00 00   ................
0x7f23c10dbe64  00 00 00 00 00 00 00 00 00 00 00 00 00 00 00 00   ................
0x7f23c10dbe74  00 00 00 00 00 00 00 00 00 00 00 00 00 00 00 00   ................
0x7f23c10dbe84  00 00 00 00 00 00 00 00 00 00 00 00 00 00 00 00   ................
0x7f23c10dbe94  00 00 00 00 00 00 00 00 00 00 00 00 00 00 00 00   ................
0x7f23c10dbea4  00 00 00 00 00 00 00 00 00 00 00 00 00 00 00 00   ................
0x7f23c10dbeb4  00 00 00 00 00 00 00 00 00 00 00 00 00 00 00 00   ................
0x7f23c10dbec4  00 00 00 00 00 00 00 00 00 00 00 00 00 00 00 00   ................
0x7f23c10dbed4  00 00 00 00 00 00 00 00 00 00 00 00 00 00 00 00   ................
0x7f23c10dbee4  00 00 00 00 00 00 00 00 00 00 00 00 00 00 00 00   ................
Task: smbd pid 2931 rule r1 addr 0x7f23c1d7d580
0x7f23c1d7d580  31 39 32 2e 31 36 38 2e 31 30 2e 32 30 30 00 00   192.168.10.200..
0x7f23c1d7d590  00 00 00 00 00 00 00 00 00 00 00 00 00 00 00 00   ................
0x7f23c1d7d5a0  00 00 00 00 00 00 00 00 00 00 00 00 00 00 00 00   ................
0x7f23c1d7d5b0  90 b2 6c c2 23 7f 00 00 00 00 00 00 00 00 00 00   ..l.#...........
0x7f23c1d7d5c0  31 39 32 2e 31 36 38 2e 31 30 2e 32 00 00 00 00   192.168.10.2....
0x7f23c1d7d5d0  00 00 00 00 00 00 00 00 00 00 00 00 00 00 00 00   ................
0x7f23c1d7d5e0  00 00 00 00 00 00 00 00 00 00 00 00 00 00 00 00   ................
0x7f23c1d7d5f0  00 00 00 00 00 00 00 00 01 00 00 00 00 00 00 00   ................
0x7f23c1d7d600  00 00 00 00 00 00 00 00 00 00 00 00 00 00 00 00   ................
0x7f23c1d7d610  00 00 00 00 00 00 00 00 f0 27 6c c2 23 7f 00 00   .........'l.#...
0x7f23c1d7d620  f0 c4 6c c2 23 7f 00 00 06 00 00 00 00 00 00 00   ..l.#...........
0x7f23c1d7d630  20 c2 6c c2 23 7f 00 00 e0 21 6c c2 23 7f 00 00   ..l.#....!l.#...
0x7f23c1d7d640  01 00 00 00 00 00 00 00 a0 a4 6b c2 23 7f 00 00   ..........k.#...
0x7f23c1d7d650  d0 a1 6b c2 23 7f 00 00 00 00 00 00 00 00 00 00   ..k.#...........
0x7f23c1d7d660  e0 da 6b c2 23 7f 00 00 10 d5 6b c2 23 7f 00 00   ..k.#.....k.#...
0x7f23c1d7d670  20 a5 6b c2 23 7f 00 00 00 00 00 00 00 00 00 00   ..k.#...........
Task: smbd pid 2931 rule r1 addr 0x7f23c26ba5e8
0x7f23c26ba5e8  31 39 32 2e 31 36 38 2e 31 30 2e 32 30 30 00 00   192.168.10.200..
0x7f23c26ba5f8  00 00 00 00 00 00 00 00 00 00 00 00 00 00 00 00   ................
0x7f23c26ba608  00 00 00 00 00 00 00 00 00 00 00 00 00 00 00 00   ................
0x7f23c26ba618  50 b9 6b c2 23 7f 00 00 70 f0 6b c2 23 7f 00 00   P.k.#...p.k.#...
0x7f23c26ba628  b0 ea 6b c2 23 7f 00 00 10 d5 6b c2 23 7f 00 00   ..k.#.....k.#...
0x7f23c26ba638  01 00 00 00 05 00 00 00 e0 48 6c c2 23 7f 00 00   .........Hl.#...
0x7f23c26ba648  00 00 00 00 00 00 00 00 f0 b1 6c c2 23 7f 00 00   ..........l.#...
0x7f23c26ba658  00 40 00 00 00 00 00 00 00 00 00 00 00 00 00 00   .@..............
0x7f23c26ba668  00 00 00 00 00 00 00 00 00 00 00 00 00 00 00 00   ................
0x7f23c26ba678  00 00 00 00 00 00 00 00 00 00 00 00 00 00 00 00   ................
0x7f23c26ba688  00 00 00 00 01 00 00 00 00 47 6c c2 23 7f 00 00   .........Gl.#...
0x7f23c26ba698  00 00 00 00 00 00 00 00 00 00 00 00 00 00 00 00   ................
0x7f23c26ba6a8  06 00 00 00 00 00 00 00 60 46 6d c2 23 7f 00 00   ........`Fm.#...
0x7f23c26ba6b8  ff ff ff ff ff ff ff ff 00 00 00 00 00 00 00 00   ................
0x7f23c26ba6c8  00 00 00 00 00 00 00 00 01 01 00 00 00 00 00 00   ................
0x7f23c26ba6d8  00 00 00 00 00 00 00 00 01 00 00 00 04 41 00 00   .............A..
Task: smbd pid 2931 rule r1 addr 0x7f23c26bb950
0x7f23c26bb950  31 39 32 2e 31 36 38 2e 31 30 2e 32 30 30 00 6c   192.168.10.200.l
0x7f23c26bb960  6f 67 2e 73 6d 62 64 00 71 00 00 00 00 00 00 00   og.smbd.q.......
0x7f23c26bb970  00 00 00 00 00 00 00 00 40 23 6d c2 23 7f 00 00   ........@#m.#...
0x7f23c26bb980  00 00 00 00 00 00 00 00 00 00 00 00 00 00 00 00   ................
0x7f23c26bb990  00 00 00 00 00 00 00 00 e0 ce 61 c1 23 7f 00 00   ..........a.#...
0x7f23c26bb9a0  58 8e 9e c1 23 7f 00 00 18 00 00 00 00 00 00 00   X...#...........
0x7f23c26bb9b0  70 0c 15 e8 23 7f 00 00 00 00 00 00 00 00 00 00   p...#...........
0x7f23c26bb9c0  c0 b9 6b c2 23 7f 00 00 00 00 00 00 00 00 00 00   ..k.#...........
0x7f23c26bb9d0  b0 0b 6d c2 23 7f 00 00 21 00 00 00 00 00 00 00   ..m.#...!.......
0x7f23c26bb9e0  74 64 62 73 61 6d 00 00 62 61 00 be 23 7f 00 00   tdbsam..ba..#...
0x7f23c26bb9f0  50 b7 6b c2 23 7f 00 00 21 00 00 00 00 00 00 00   P.k.#...!.......
0x7f23c26bba00  2f 76 61 72 2f 63 61 63 68 65 2f 73 61 6d 62 61   /var/cache/samba
0x7f23c26bba10  00 00 00 00 00 00 00 00 b1 00 00 00 00 00 00 00   ................
0x7f23c26bba20  d0 a4 6b c2 23 7f 00 00 d0 ba 6b c2 23 7f 00 00   ..k.#.....k.#...
0x7f23c26bba30  00 00 00 00 00 00 00 00 00 00 00 00 00 00 00 00   ................
0x7f23c26bba40  00 00 00 00 00 00 00 00 00 00 00 00 00 00 00 00   ................
Task: smbd pid 2931 rule r1 addr 0x7f23c26cb290
0x7f23c26cb290  31 39 32 2e 31 36 38 2e 31 30 2e 32 30 30 00 00   192.168.10.200..
0x7f23c26cb2a0  20 00 00 00 00 00 00 00 31 00 00 00 00 00 00 00   ........1.......
0x7f23c26cb2b0  f0 22 6c c2 23 7f 00 00 10 a1 6c c2 23 7f 00 00   ."l.#.....l.#...
0x7f23c26cb2c0  00 00 00 00 00 00 00 00 4e 4c 00 32 30 00 00 00   ........NL.20...
0x7f23c26cb2d0  30 00 00 00 00 00 00 00 61 00 00 00 00 00 00 00   0.......a.......
0x7f23c26cb2e0  00 00 00 00 00 00 00 00 00 00 00 00 00 00 00 00   ................
0x7f23c26cb2f0  00 b0 6c c2 23 7f 00 00 20 bb 6c c2 23 7f 00 00   ..l.#.....l.#...
0x7f23c26cb300  00 00 00 00 00 00 00 00 00 00 00 00 00 00 00 00   ................
0x7f23c26cb310  6b f4 9d c1 23 7f 00 00 08 00 00 00 00 00 00 00   k...#...........
0x7f23c26cb320  70 0c 15 e8 00 00 00 00 00 00 00 00 00 00 00 00   p...............
0x7f23c26cb330  80 da 6c c2 23 7f 00 00 61 00 00 00 00 00 00 00   ..l.#...a.......
0x7f23c26cb340  00 00 00 00 00 00 00 00 a0 bb 6c c2 23 7f 00 00   ..........l.#...
0x7f23c26cb350  00 00 00 00 00 00 00 00 00 00 00 00 00 00 00 00   ................
0x7f23c26cb360  00 00 00 00 00 00 00 00 00 00 00 00 00 00 00 00   ................
0x7f23c26cb370  ad ab 87 c1 23 7f 00 00 04 00 00 00 00 00 00 00   ....#...........
0x7f23c26cb380  70 0c 15 e8 00 00 00 00 00 00 00 00 00 00 00 00   p...............
Task: smbd pid 2931 rule r1 addr 0x7f23c26d3cac
0x7f23c26d3cac  31 39 32 2e 31 36 38 2e 31 30 2e 32 30 30 00 00   192.168.10.200..
0x7f23c26d3cbc  00 00 00 00 00 00 00 00 00 00 00 00 00 00 00 00   ................
0x7f23c26d3ccc  00 00 00 00 00 00 00 00 00 00 00 00 00 00 00 00   ................
0x7f23c26d3cdc  00 00 00 00 00 00 00 00 00 00 00 00 00 00 00 00   ................
0x7f23c26d3cec  00 00 00 00 00 00 00 00 00 00 00 00 00 00 00 00   ................
0x7f23c26d3cfc  00 00 00 00 00 00 00 00 00 00 00 00 00 00 00 00   ................
0x7f23c26d3d0c  00 00 00 00 00 00 00 00 00 00 00 00 00 00 00 00   ................
0x7f23c26d3d1c  00 00 00 00 00 00 00 00 00 00 00 00 00 00 00 00   ................
0x7f23c26d3d2c  00 00 00 00 00 00 00 00 00 00 00 00 00 00 00 00   ................
0x7f23c26d3d3c  00 00 00 00 00 00 00 00 00 00 00 00 00 00 00 00   ................
0x7f23c26d3d4c  00 00 00 00 00 00 00 00 00 00 00 00 00 00 00 00   ................
0x7f23c26d3d5c  00 00 00 00 00 00 00 00 00 00 00 00 00 00 00 00   ................
0x7f23c26d3d6c  00 00 00 00 00 00 00 00 00 00 00 00 00 00 00 00   ................
0x7f23c26d3d7c  00 00 00 00 00 00 00 00 00 00 00 00 00 00 00 00   ................
0x7f23c26d3d8c  00 00 00 00 00 00 00 00 00 00 00 00 00 00 00 00   ................
0x7f23c26d3d9c  00 00 00 00 00 00 00 00 00 00 00 00 00 00 00 00   ................
Task: smbd pid 2931 rule r1 addr 0x7f23c26d7377
0x7f23c26d7377  31 39 32 2e 31 36 38 2e 31 30 2e 32 30 30 00 00   192.168.10.200..
0x7f23c26d7387  00 00 00 00 00 00 00 00 00 00 00 00 00 00 00 00   ................
0x7f23c26d7397  00 00 00 00 00 00 00 00 00 00 01 00 00 00 00 00   ................
0x7f23c26d73a7  00 21 00 00 00 00 00 00 00 6e 65 74 64 66 73 00   .!.......netdfs.
0x7f23c26d73b7  00 88 e7 52 be 23 7f 00 00 20 00 00 00 00 00 00   ...R.#..........
0x7f23c26d73c7  00 21 00 00 00 00 00 00 00 75 6e 69 78 00 7f 00   .!.......unix...
0x7f23c26d73d7  00 f0 ca 6b c2 23 7f 00 00 10 bc 6c c2 23 7f 00   ...k.#.....l.#..
0x7f23c26d73e7  00 41 00 00 00 00 00 00 00 00 cb 6b c2 23 7f 00   .A.........k.#..
0x7f23c26d73f7  00 40 d0 65 c1 23 7f 00 00 20 cb 6b c2 23 7f 00   .@.e.#.....k.#..
0x7f23c26d7407  00 b0 21 6d c2 23 7f 00 00 73 0c 15 e8 00 00 00   ..!m.#...s......
0x7f23c26d7417  00 00 00 00 00 00 00 00 00 40 00 00 00 00 00 00   .........@......
0x7f23c26d7427  00 f1 00 00 00 00 00 00 00 80 39 6d c2 23 7f 00   ..........9m.#..
0x7f23c26d7437  00 d0 01 6d c2 23 7f 00 00 00 00 00 00 00 00 00   ...m.#..........
0x7f23c26d7447  00 00 00 00 00 00 00 00 00 00 00 00 00 00 00 00   ................
0x7f23c26d7457  00 00 00 00 00 00 00 00 00 cd 90 9e c1 23 7f 00   .............#..
0x7f23c26d7467  00 98 00 00 00 00 00 00 00 70 0c 15 e8 00 00 00   .........p......
Task: smbd pid 2932 rule r1 addr 0x7f23c10db0d4
0x7f23c10db0d4  31 39 32 2e 31 36 38 2e 31 30 2e 32 30 30 00 00   192.168.10.200..
0x7f23c10db0e4  00 00 00 00 00 00 00 00 75 6f 63 6f 6e 74 72 6f   ........uocontro
0x7f23c10db0f4  6c 63 6c 69 65 6e 74 65 2d 70 63 00 00 00 00 00   lcliente-pc.....
0x7f23c10db104  00 00 00 00 00 00 00 00 00 00 00 00 00 00 00 00   ................
0x7f23c10db114  00 00 00 00 00 00 00 00 00 00 00 00 00 00 00 00   ................
0x7f23c10db124  00 00 00 00 00 00 00 00 00 00 00 00 00 00 00 00   ................
0x7f23c10db134  00 00 00 00 00 00 00 00 00 00 00 00 00 00 00 00   ................
0x7f23c10db144  00 00 00 00 00 00 00 00 00 00 00 00 00 00 00 00   ................
0x7f23c10db154  00 00 00 00 00 00 00 00 00 00 00 00 00 00 00 00   ................
0x7f23c10db164  00 00 00 00 00 00 00 00 00 00 00 00 00 00 00 00   ................
0x7f23c10db174  00 00 00 00 00 00 00 00 00 00 00 00 00 00 00 00   ................
0x7f23c10db184  00 00 00 00 00 00 00 00 00 00 00 00 00 00 00 00   ................
0x7f23c10db194  00 00 00 00 00 00 00 00 00 00 00 00 00 00 00 00   ................
0x7f23c10db1a4  00 00 00 00 00 00 00 00 00 00 00 00 00 00 00 00   ................
0x7f23c10db1b4  00 00 00 00 00 00 00 00 00 00 00 00 00 00 00 00   ................
0x7f23c10db1c4  00 00 00 00 00 00 00 00 00 00 00 00 00 00 00 00   ................
Task: smbd pid 2932 rule r1 addr 0x7f23c10db534
0x7f23c10db534  31 39 32 2e 31 36 38 2e 31 30 2e 32 30 30 00 00   192.168.10.200..
0x7f23c10db544  00 00 00 00 00 00 00 00 75 6f 63 6f 6e 74 72 6f   ........uocontro
0x7f23c10db554  6c 63 6c 69 65 6e 74 65 2d 70 63 00 00 00 00 00   lcliente-pc.....
0x7f23c10db564  00 00 00 00 00 00 00 00 00 00 00 00 00 00 00 00   ................
0x7f23c10db574  00 00 00 00 00 00 00 00 00 00 00 00 00 00 00 00   ................
0x7f23c10db584  00 00 00 00 00 00 00 00 00 00 00 00 00 00 00 00   ................
0x7f23c10db594  00 00 00 00 00 00 00 00 00 00 00 00 00 00 00 00   ................
0x7f23c10db5a4  00 00 00 00 00 00 00 00 00 00 00 00 00 00 00 00   ................
0x7f23c10db5b4  00 00 00 00 00 00 00 00 00 00 00 00 00 00 00 00   ................
0x7f23c10db5c4  00 00 00 00 00 00 00 00 00 00 00 00 00 00 00 00   ................
0x7f23c10db5d4  00 00 00 00 00 00 00 00 00 00 00 00 00 00 00 00   ................
0x7f23c10db5e4  00 00 00 00 00 00 00 00 00 00 00 00 00 00 00 00   ................
0x7f23c10db5f4  00 00 00 00 00 00 00 00 00 00 00 00 00 00 00 00   ................
0x7f23c10db604  00 00 00 00 00 00 00 00 00 00 00 00 00 00 00 00   ................
0x7f23c10db614  00 00 00 00 00 00 00 00 00 00 00 00 00 00 00 00   ................
0x7f23c10db624  00 00 00 00 00 00 00 00 00 00 00 00 00 00 00 00   ................
Task: smbd pid 2932 rule r1 addr 0x7f23c10db994
0x7f23c10db994  31 39 32 2e 31 36 38 2e 31 30 2e 32 30 30 00 00   192.168.10.200..
0x7f23c10db9a4  00 00 00 00 00 00 00 00 00 00 00 00 00 00 00 00   ................
0x7f23c10db9b4  00 00 00 00 00 00 00 00 00 00 00 00 00 00 00 00   ................
0x7f23c10db9c4  00 00 00 00 00 00 00 00 00 00 00 00 00 00 00 00   ................
0x7f23c10db9d4  00 00 00 00 00 00 00 00 00 00 00 00 00 00 00 00   ................
0x7f23c10db9e4  00 00 00 00 00 00 00 00 00 00 00 00 00 00 00 00   ................
0x7f23c10db9f4  00 00 00 00 00 00 00 00 00 00 00 00 00 00 00 00   ................
0x7f23c10dba04  00 00 00 00 00 00 00 00 00 00 00 00 00 00 00 00   ................
0x7f23c10dba14  00 00 00 00 00 00 00 00 00 00 00 00 00 00 00 00   ................
0x7f23c10dba24  00 00 00 00 00 00 00 00 00 00 00 00 00 00 00 00   ................
0x7f23c10dba34  00 00 00 00 00 00 00 00 00 00 00 00 00 00 00 00   ................
0x7f23c10dba44  00 00 00 00 00 00 00 00 00 00 00 00 00 00 00 00   ................
0x7f23c10dba54  00 00 00 00 00 00 00 00 00 00 00 00 00 00 00 00   ................
0x7f23c10dba64  00 00 00 00 00 00 00 00 00 00 00 00 00 00 00 00   ................
0x7f23c10dba74  00 00 00 00 00 00 00 00 00 00 00 00 00 00 00 00   ................
0x7f23c10dba84  00 00 00 00 00 00 00 00 00 00 00 00 00 00 00 00   ................
Task: smbd pid 2932 rule r1 addr 0x7f23c10dbdf4
0x7f23c10dbdf4  31 39 32 2e 31 36 38 2e 31 30 2e 32 30 30 00 00   192.168.10.200..
0x7f23c10dbe04  00 00 00 00 00 00 00 00 00 00 00 00 00 00 00 00   ................
0x7f23c10dbe14  00 00 00 00 00 00 00 00 00 00 00 00 00 00 00 00   ................
0x7f23c10dbe24  00 00 00 00 00 00 00 00 00 00 00 00 00 00 00 00   ................
0x7f23c10dbe34  00 00 00 00 00 00 00 00 00 00 00 00 00 00 00 00   ................
0x7f23c10dbe44  00 00 00 00 00 00 00 00 00 00 00 00 00 00 00 00   ................
0x7f23c10dbe54  00 00 00 00 00 00 00 00 00 00 00 00 00 00 00 00   ................
0x7f23c10dbe64  00 00 00 00 00 00 00 00 00 00 00 00 00 00 00 00   ................
0x7f23c10dbe74  00 00 00 00 00 00 00 00 00 00 00 00 00 00 00 00   ................
0x7f23c10dbe84  00 00 00 00 00 00 00 00 00 00 00 00 00 00 00 00   ................
0x7f23c10dbe94  00 00 00 00 00 00 00 00 00 00 00 00 00 00 00 00   ................
0x7f23c10dbea4  00 00 00 00 00 00 00 00 00 00 00 00 00 00 00 00   ................
0x7f23c10dbeb4  00 00 00 00 00 00 00 00 00 00 00 00 00 00 00 00   ................
0x7f23c10dbec4  00 00 00 00 00 00 00 00 00 00 00 00 00 00 00 00   ................
0x7f23c10dbed4  00 00 00 00 00 00 00 00 00 00 00 00 00 00 00 00   ................
0x7f23c10dbee4  00 00 00 00 00 00 00 00 00 00 00 00 00 00 00 00   ................
Task: smbd pid 2932 rule r1 addr 0x7f23c1d7d580
0x7f23c1d7d580  31 39 32 2e 31 36 38 2e 31 30 2e 32 30 30 00 00   192.168.10.200..
0x7f23c1d7d590  00 00 00 00 00 00 00 00 00 00 00 00 00 00 00 00   ................
0x7f23c1d7d5a0  00 00 00 00 00 00 00 00 00 00 00 00 00 00 00 00   ................
0x7f23c1d7d5b0  90 b2 6c c2 23 7f 00 00 00 00 00 00 00 00 00 00   ..l.#...........
0x7f23c1d7d5c0  31 39 32 2e 31 36 38 2e 31 30 2e 32 00 00 00 00   192.168.10.2....
0x7f23c1d7d5d0  00 00 00 00 00 00 00 00 00 00 00 00 00 00 00 00   ................
0x7f23c1d7d5e0  00 00 00 00 00 00 00 00 00 00 00 00 00 00 00 00   ................
0x7f23c1d7d5f0  00 00 00 00 00 00 00 00 01 00 00 00 00 00 00 00   ................
0x7f23c1d7d600  00 00 00 00 00 00 00 00 00 00 00 00 00 00 00 00   ................
0x7f23c1d7d610  00 00 00 00 00 00 00 00 f0 27 6c c2 23 7f 00 00   .........'l.#...
0x7f23c1d7d620  f0 c4 6c c2 23 7f 00 00 06 00 00 00 00 00 00 00   ..l.#...........
0x7f23c1d7d630  20 c2 6c c2 23 7f 00 00 e0 21 6c c2 23 7f 00 00   ..l.#....!l.#...
0x7f23c1d7d640  01 00 00 00 00 00 00 00 a0 a4 6b c2 23 7f 00 00   ..........k.#...
0x7f23c1d7d650  d0 a1 6b c2 23 7f 00 00 00 00 00 00 00 00 00 00   ..k.#...........
0x7f23c1d7d660  e0 da 6b c2 23 7f 00 00 10 d5 6b c2 23 7f 00 00   ..k.#.....k.#...
0x7f23c1d7d670  20 a5 6b c2 23 7f 00 00 00 00 00 00 00 00 00 00   ..k.#...........
Task: smbd pid 2932 rule r1 addr 0x7f23c26ba5e8
0x7f23c26ba5e8  31 39 32 2e 31 36 38 2e 31 30 2e 32 30 30 00 00   192.168.10.200..
0x7f23c26ba5f8  00 00 00 00 00 00 00 00 00 00 00 00 00 00 00 00   ................
0x7f23c26ba608  00 00 00 00 00 00 00 00 00 00 00 00 00 00 00 00   ................
0x7f23c26ba618  50 b9 6b c2 23 7f 00 00 70 f0 6b c2 23 7f 00 00   P.k.#...p.k.#...
0x7f23c26ba628  b0 ea 6b c2 23 7f 00 00 10 d5 6b c2 23 7f 00 00   ..k.#.....k.#...
0x7f23c26ba638  01 00 00 00 0d 00 00 00 e0 48 6c c2 23 7f 00 00   .........Hl.#...
0x7f23c26ba648  00 00 00 00 00 00 00 00 f0 b1 6c c2 23 7f 00 00   ..........l.#...
0x7f23c26ba658  00 40 00 00 00 00 00 00 00 00 00 00 00 00 00 00   .@..............
0x7f23c26ba668  00 00 00 00 00 00 00 00 00 00 00 00 00 00 00 00   ................
0x7f23c26ba678  00 00 00 00 00 00 00 00 02 00 00 00 00 00 00 00   ................
0x7f23c26ba688  55 1c 00 00 01 00 00 00 00 47 6c c2 23 7f 00 00   U........Gl.#...
0x7f23c26ba698  00 00 00 00 00 00 00 00 00 00 00 00 00 00 00 00   ................
0x7f23c26ba6a8  0e 00 00 00 00 00 00 00 60 46 6d c2 23 7f 00 00   ........`Fm.#...
0x7f23c26ba6b8  ff ff ff ff ff ff ff ff 00 00 00 00 00 00 00 00   ................
0x7f23c26ba6c8  00 00 00 00 00 00 00 00 01 01 00 00 00 00 00 00   ................
0x7f23c26ba6d8  00 00 00 00 00 00 00 00 01 00 00 00 04 41 00 00   .............A..
Task: smbd pid 2932 rule r1 addr 0x7f23c26bb950
0x7f23c26bb950  31 39 32 2e 31 36 38 2e 31 30 2e 32 30 30 00 6c   192.168.10.200.l
0x7f23c26bb960  6f 67 2e 73 6d 62 64 00 71 00 00 00 00 00 00 00   og.smbd.q.......
0x7f23c26bb970  00 00 00 00 00 00 00 00 40 23 6d c2 23 7f 00 00   ........@#m.#...
0x7f23c26bb980  00 00 00 00 00 00 00 00 00 00 00 00 00 00 00 00   ................
0x7f23c26bb990  00 00 00 00 00 00 00 00 e0 ce 61 c1 23 7f 00 00   ..........a.#...
0x7f23c26bb9a0  58 8e 9e c1 23 7f 00 00 18 00 00 00 00 00 00 00   X...#...........
0x7f23c26bb9b0  70 0c 15 e8 23 7f 00 00 00 00 00 00 00 00 00 00   p...#...........
0x7f23c26bb9c0  c0 b9 6b c2 23 7f 00 00 00 00 00 00 00 00 00 00   ..k.#...........
0x7f23c26bb9d0  b0 0b 6d c2 23 7f 00 00 21 00 00 00 00 00 00 00   ..m.#...!.......
0x7f23c26bb9e0  74 64 62 73 61 6d 00 00 62 61 00 be 23 7f 00 00   tdbsam..ba..#...
0x7f23c26bb9f0  50 b7 6b c2 23 7f 00 00 21 00 00 00 00 00 00 00   P.k.#...!.......
0x7f23c26bba00  2f 76 61 72 2f 63 61 63 68 65 2f 73 61 6d 62 61   /var/cache/samba
0x7f23c26bba10  00 00 00 00 00 00 00 00 b1 00 00 00 00 00 00 00   ................
0x7f23c26bba20  d0 a4 6b c2 23 7f 00 00 d0 ba 6b c2 23 7f 00 00   ..k.#.....k.#...
0x7f23c26bba30  00 00 00 00 00 00 00 00 00 00 00 00 00 00 00 00   ................
0x7f23c26bba40  00 00 00 00 00 00 00 00 00 00 00 00 00 00 00 00   ................
Task: smbd pid 2932 rule r1 addr 0x7f23c26cb290
0x7f23c26cb290  31 39 32 2e 31 36 38 2e 31 30 2e 32 30 30 00 00   192.168.10.200..
0x7f23c26cb2a0  20 00 00 00 00 00 00 00 31 00 00 00 00 00 00 00   ........1.......
0x7f23c26cb2b0  60 06 6c c2 23 7f 00 00 10 a1 6c c2 23 7f 00 00   `.l.#.....l.#...
0x7f23c26cb2c0  00 00 00 00 00 00 00 00 4e 4c 00 32 30 00 00 00   ........NL.20...
0x7f23c26cb2d0  30 00 00 00 00 00 00 00 61 00 00 00 00 00 00 00   0.......a.......
0x7f23c26cb2e0  00 00 00 00 00 00 00 00 00 00 00 00 00 00 00 00   ................
0x7f23c26cb2f0  00 b0 6c c2 23 7f 00 00 20 bb 6c c2 23 7f 00 00   ..l.#.....l.#...
0x7f23c26cb300  00 00 00 00 00 00 00 00 00 00 00 00 00 00 00 00   ................
0x7f23c26cb310  6b f4 9d c1 23 7f 00 00 08 00 00 00 00 00 00 00   k...#...........
0x7f23c26cb320  70 0c 15 e8 00 00 00 00 00 00 00 00 00 00 00 00   p...............
0x7f23c26cb330  80 da 6c c2 23 7f 00 00 61 00 00 00 00 00 00 00   ..l.#...a.......
0x7f23c26cb340  00 00 00 00 00 00 00 00 50 44 6c c2 23 7f 00 00   ........PDl.#...
0x7f23c26cb350  00 00 00 00 00 00 00 00 00 00 00 00 00 00 00 00   ................
0x7f23c26cb360  00 00 00 00 00 00 00 00 00 00 00 00 00 00 00 00   ................
0x7f23c26cb370  ad ab 87 c1 23 7f 00 00 04 00 00 00 00 00 00 00   ....#...........
0x7f23c26cb380  70 0c 15 e8 00 00 00 00 00 00 00 00 00 00 00 00   p...............
Task: smbd pid 2932 rule r1 addr 0x7f23c26d7377
0x7f23c26d7377  31 39 32 2e 31 36 38 2e 31 30 2e 32 30 30 00 00   192.168.10.200..
0x7f23c26d7387  00 00 00 00 00 00 00 00 00 00 00 00 00 00 00 00   ................
0x7f23c26d7397  00 00 00 00 00 00 00 00 00 00 01 00 00 00 00 00   ................
0x7f23c26d73a7  00 21 00 00 00 00 00 00 00 6e 65 74 64 66 73 00   .!.......netdfs.
0x7f23c26d73b7  00 88 e7 52 be 23 7f 00 00 20 00 00 00 00 00 00   ...R.#..........
0x7f23c26d73c7  00 31 00 00 00 00 00 00 00 00 74 6d c2 23 7f 00   .1........tm.#..
0x7f23c26d73d7  00 c0 ce 65 c1 23 7f 00 00 00 cb 6b c2 23 7f 00   ...e.#.....k.#..
0x7f23c26d73e7  00 80 21 6d c2 23 7f 00 00 00 00 00 00 00 00 00   ..!m.#..........
0x7f23c26d73f7  00 31 00 00 00 00 00 00 00 75 6e 69 78 00 7f 00   .1.......unix...
0x7f23c26d7407  00 98 e7 52 be 23 7f 00 00 73 0c 15 e8 00 00 00   ...R.#...s......
0x7f23c26d7417  00 00 00 00 00 00 00 00 00 30 00 00 00 00 00 00   .........0......
0x7f23c26d7427  00 f1 00 00 00 00 00 00 00 80 39 6d c2 23 7f 00   ..........9m.#..
0x7f23c26d7437  00 d0 01 6d c2 23 7f 00 00 00 00 00 00 00 00 00   ...m.#..........
0x7f23c26d7447  00 00 00 00 00 00 00 00 00 00 00 00 00 00 00 00   ................
0x7f23c26d7457  00 00 00 00 00 00 00 00 00 cd 90 9e c1 23 7f 00   .............#..
0x7f23c26d7467  00 98 00 00 00 00 00 00 00 70 0c 15 e8 00 00 00   .........p......
Task: smbd pid 2936 rule r1 addr 0x7f23c10a90d4
0x7f23c10a90d4  31 39 32 2e 31 36 38 2e 31 30 2e 32 30 30 00 00   192.168.10.200..
0x7f23c10a90e4  00 00 00 00 00 00 00 00 75 6f 63 6f 6e 74 72 6f   ........uocontro
0x7f23c10a90f4  6c 63 6c 69 65 6e 74 65 2d 70 63 00 00 00 00 00   lcliente-pc.....
0x7f23c10a9104  00 00 00 00 00 00 00 00 00 00 00 00 00 00 00 00   ................
0x7f23c10a9114  00 00 00 00 00 00 00 00 00 00 00 00 00 00 00 00   ................
0x7f23c10a9124  00 00 00 00 00 00 00 00 00 00 00 00 00 00 00 00   ................
0x7f23c10a9134  00 00 00 00 00 00 00 00 00 00 00 00 00 00 00 00   ................
0x7f23c10a9144  00 00 00 00 00 00 00 00 00 00 00 00 00 00 00 00   ................
0x7f23c10a9154  00 00 00 00 00 00 00 00 00 00 00 00 00 00 00 00   ................
0x7f23c10a9164  00 00 00 00 00 00 00 00 00 00 00 00 00 00 00 00   ................
0x7f23c10a9174  00 00 00 00 00 00 00 00 00 00 00 00 00 00 00 00   ................
0x7f23c10a9184  00 00 00 00 00 00 00 00 00 00 00 00 00 00 00 00   ................
0x7f23c10a9194  00 00 00 00 00 00 00 00 00 00 00 00 00 00 00 00   ................
0x7f23c10a91a4  00 00 00 00 00 00 00 00 00 00 00 00 00 00 00 00   ................
0x7f23c10a91b4  00 00 00 00 00 00 00 00 00 00 00 00 00 00 00 00   ................
0x7f23c10a91c4  00 00 00 00 00 00 00 00 00 00 00 00 00 00 00 00   ................
Task: smbd pid 2936 rule r1 addr 0x7f23c10a9534
0x7f23c10a9534  31 39 32 2e 31 36 38 2e 31 30 2e 32 30 30 00 00   192.168.10.200..
0x7f23c10a9544  00 00 00 00 00 00 00 00 75 6f 63 6f 6e 74 72 6f   ........uocontro
0x7f23c10a9554  6c 63 6c 69 65 6e 74 65 2d 70 63 00 00 00 00 00   lcliente-pc.....
0x7f23c10a9564  00 00 00 00 00 00 00 00 00 00 00 00 00 00 00 00   ................
0x7f23c10a9574  00 00 00 00 00 00 00 00 00 00 00 00 00 00 00 00   ................
0x7f23c10a9584  00 00 00 00 00 00 00 00 00 00 00 00 00 00 00 00   ................
0x7f23c10a9594  00 00 00 00 00 00 00 00 00 00 00 00 00 00 00 00   ................
0x7f23c10a95a4  00 00 00 00 00 00 00 00 00 00 00 00 00 00 00 00   ................
0x7f23c10a95b4  00 00 00 00 00 00 00 00 00 00 00 00 00 00 00 00   ................
0x7f23c10a95c4  00 00 00 00 00 00 00 00 00 00 00 00 00 00 00 00   ................
0x7f23c10a95d4  00 00 00 00 00 00 00 00 00 00 00 00 00 00 00 00   ................
0x7f23c10a95e4  00 00 00 00 00 00 00 00 00 00 00 00 00 00 00 00   ................
0x7f23c10a95f4  00 00 00 00 00 00 00 00 00 00 00 00 00 00 00 00   ................
0x7f23c10a9604  00 00 00 00 00 00 00 00 00 00 00 00 00 00 00 00   ................
0x7f23c10a9614  00 00 00 00 00 00 00 00 00 00 00 00 00 00 00 00   ................
0x7f23c10a9624  00 00 00 00 00 00 00 00 00 00 00 00 00 00 00 00   ................
Task: smbd pid 2936 rule r1 addr 0x7f23c10a9994
0x7f23c10a9994  31 39 32 2e 31 36 38 2e 31 30 2e 32 30 30 00 00   192.168.10.200..
0x7f23c10a99a4  00 00 00 00 00 00 00 00 00 00 00 00 00 00 00 00   ................
0x7f23c10a99b4  00 00 00 00 00 00 00 00 00 00 00 00 00 00 00 00   ................
0x7f23c10a99c4  00 00 00 00 00 00 00 00 00 00 00 00 00 00 00 00   ................
0x7f23c10a99d4  00 00 00 00 00 00 00 00 00 00 00 00 00 00 00 00   ................
0x7f23c10a99e4  00 00 00 00 00 00 00 00 00 00 00 00 00 00 00 00   ................
0x7f23c10a99f4  00 00 00 00 00 00 00 00 00 00 00 00 00 00 00 00   ................
0x7f23c10a9a04  00 00 00 00 00 00 00 00 00 00 00 00 00 00 00 00   ................
0x7f23c10a9a14  00 00 00 00 00 00 00 00 00 00 00 00 00 00 00 00   ................
0x7f23c10a9a24  00 00 00 00 00 00 00 00 00 00 00 00 00 00 00 00   ................
0x7f23c10a9a34  00 00 00 00 00 00 00 00 00 00 00 00 00 00 00 00   ................
0x7f23c10a9a44  00 00 00 00 00 00 00 00 00 00 00 00 00 00 00 00   ................
0x7f23c10a9a54  00 00 00 00 00 00 00 00 00 00 00 00 00 00 00 00   ................
0x7f23c10a9a64  00 00 00 00 00 00 00 00 00 00 00 00 00 00 00 00   ................
0x7f23c10a9a74  00 00 00 00 00 00 00 00 00 00 00 00 00 00 00 00   ................
0x7f23c10a9a84  00 00 00 00 00 00 00 00 00 00 00 00 00 00 00 00   ................
Task: smbd pid 2936 rule r1 addr 0x7f23c10a9df4
0x7f23c10a9df4  31 39 32 2e 31 36 38 2e 31 30 2e 32 30 30 00 00   192.168.10.200..
0x7f23c10a9e04  00 00 00 00 00 00 00 00 00 00 00 00 00 00 00 00   ................
0x7f23c10a9e14  00 00 00 00 00 00 00 00 00 00 00 00 00 00 00 00   ................
0x7f23c10a9e24  00 00 00 00 00 00 00 00 00 00 00 00 00 00 00 00   ................
0x7f23c10a9e34  00 00 00 00 00 00 00 00 00 00 00 00 00 00 00 00   ................
0x7f23c10a9e44  00 00 00 00 00 00 00 00 00 00 00 00 00 00 00 00   ................
0x7f23c10a9e54  00 00 00 00 00 00 00 00 00 00 00 00 00 00 00 00   ................
0x7f23c10a9e64  00 00 00 00 00 00 00 00 00 00 00 00 00 00 00 00   ................
0x7f23c10a9e74  00 00 00 00 00 00 00 00 00 00 00 00 00 00 00 00   ................
0x7f23c10a9e84  00 00 00 00 00 00 00 00 00 00 00 00 00 00 00 00   ................
0x7f23c10a9e94  00 00 00 00 00 00 00 00 00 00 00 00 00 00 00 00   ................
0x7f23c10a9ea4  00 00 00 00 00 00 00 00 00 00 00 00 00 00 00 00   ................
0x7f23c10a9eb4  00 00 00 00 00 00 00 00 00 00 00 00 00 00 00 00   ................
0x7f23c10a9ec4  00 00 00 00 00 00 00 00 00 00 00 00 00 00 00 00   ................
0x7f23c10a9ed4  00 00 00 00 00 00 00 00 00 00 00 00 00 00 00 00   ................
0x7f23c10a9ee4  00 00 00 00 00 00 00 00 00 00 00 00 00 00 00 00   ................
Task: smbd pid 2936 rule r1 addr 0x7f23c10db16c
0x7f23c10db16c  31 39 32 2e 31 36 38 2e 31 30 2e 32 30 30 00 00   192.168.10.200..
0x7f23c10db17c  00 00 00 00 00 00 00 00 00 00 00 00 00 00 00 00   ................
0x7f23c10db18c  00 00 00 00 00 00 00 00 00 00 00 00 00 00 00 00   ................
0x7f23c10db19c  00 00 00 00 00 00 00 00 00 00 00 00 00 00 00 00   ................
0x7f23c10db1ac  00 00 00 00 00 00 00 00 00 00 00 00 00 00 00 00   ................
0x7f23c10db1bc  00 00 00 00 00 00 00 00 00 00 00 00 00 00 00 00   ................
0x7f23c10db1cc  00 00 00 00 00 00 00 00 00 00 00 00 00 00 00 00   ................
0x7f23c10db1dc  00 00 00 00 00 00 00 00 00 00 00 00 00 00 00 00   ................
0x7f23c10db1ec  00 00 00 00 00 00 00 00 00 00 00 00 00 00 00 00   ................
0x7f23c10db1fc  00 00 00 00 00 00 00 00 00 00 00 00 00 00 00 00   ................
0x7f23c10db20c  00 00 00 00 00 00 00 00 00 00 00 00 00 00 00 00   ................
0x7f23c10db21c  00 00 00 00 00 00 00 00 00 00 00 00 00 00 00 00   ................
0x7f23c10db22c  00 00 00 00 00 00 00 00 00 00 00 00 00 00 00 00   ................
0x7f23c10db23c  00 00 00 00 00 00 00 00 00 00 00 00 00 00 00 00   ................
0x7f23c10db24c  00 00 00 00 00 00 00 00 00 00 00 00 00 00 00 00   ................
0x7f23c10db25c  00 00 00 00 00 00 00 00 00 00 00 00 00 00 00 00   ................
Task: smbd pid 2936 rule r1 addr 0x7f23c10db584
0x7f23c10db584  31 39 32 2e 31 36 38 2e 31 30 2e 32 30 30 00 00   192.168.10.200..
0x7f23c10db594  00 00 00 00 00 00 00 00 00 00 00 00 00 00 00 00   ................
0x7f23c10db5a4  00 00 00 00 00 00 00 00 00 00 00 00 00 00 00 00   ................
0x7f23c10db5b4  00 00 00 00 00 00 00 00 00 00 00 00 00 00 00 00   ................
0x7f23c10db5c4  00 00 00 00 00 00 00 00 00 00 00 00 00 00 00 00   ................
0x7f23c10db5d4  00 00 00 00 00 00 00 00 00 00 00 00 00 00 00 00   ................
0x7f23c10db5e4  00 00 00 00 00 00 00 00 00 00 00 00 00 00 00 00   ................
0x7f23c10db5f4  00 00 00 00 00 00 00 00 00 00 00 00 00 00 00 00   ................
0x7f23c10db604  00 00 00 00 00 00 00 00 00 00 00 00 00 00 00 00   ................
0x7f23c10db614  00 00 00 00 00 00 00 00 00 00 00 00 00 00 00 00   ................
0x7f23c10db624  00 00 00 00 00 00 00 00 00 00 00 00 00 00 00 00   ................
0x7f23c10db634  00 00 00 00 00 00 00 00 00 00 00 00 00 00 00 00   ................
0x7f23c10db644  00 00 00 00 00 00 00 00 00 00 00 00 00 00 00 00   ................
0x7f23c10db654  00 00 00 00 00 00 00 00 00 00 00 00 00 00 00 00   ................
0x7f23c10db664  00 00 00 00 00 00 00 00 00 00 00 00 00 00 00 00   ................
0x7f23c10db674  00 00 00 00 00 00 00 00 00 00 00 00 00 00 00 00   ................
Task: smbd pid 2936 rule r1 addr 0x7f23c10db94c
0x7f23c10db94c  31 39 32 2e 31 36 38 2e 31 30 2e 32 30 30 00 00   192.168.10.200..
0x7f23c10db95c  00 00 00 00 00 00 00 00 00 00 00 00 00 00 00 00   ................
0x7f23c10db96c  00 00 00 00 00 00 00 00 00 00 00 00 00 00 00 00   ................
0x7f23c10db97c  00 00 00 00 00 00 00 00 00 00 00 00 00 00 00 00   ................
0x7f23c10db98c  00 00 00 00 00 00 00 00 00 00 00 00 00 00 00 00   ................
0x7f23c10db99c  00 00 00 00 00 00 00 00 00 00 00 00 00 00 00 00   ................
0x7f23c10db9ac  00 00 00 00 00 00 00 00 00 00 00 00 00 00 00 00   ................
0x7f23c10db9bc  00 00 00 00 00 00 00 00 00 00 00 00 00 00 00 00   ................
0x7f23c10db9cc  00 00 00 00 00 00 00 00 00 00 00 00 00 00 00 00   ................
0x7f23c10db9dc  00 00 00 00 00 00 00 00 00 00 00 00 00 00 00 00   ................
0x7f23c10db9ec  00 00 00 00 00 00 00 00 00 00 00 00 00 00 00 00   ................
0x7f23c10db9fc  00 00 00 00 00 00 00 00 00 00 00 00 00 00 00 00   ................
0x7f23c10dba0c  00 00 00 00 00 00 00 00 00 00 00 00 00 00 00 00   ................
0x7f23c10dba1c  00 00 00 00 00 00 00 00 00 00 00 00 00 00 00 00   ................
0x7f23c10dba2c  00 00 00 00 00 00 00 00 00 00 00 00 00 00 00 00   ................
0x7f23c10dba3c  00 00 00 00 00 00 00 00 00 00 00 00 00 00 00 00   ................
Task: smbd pid 2936 rule r1 addr 0x7f23c10dbd64
0x7f23c10dbd64  31 39 32 2e 31 36 38 2e 31 30 2e 32 30 30 00 00   192.168.10.200..
0x7f23c10dbd74  00 00 00 00 00 00 00 00 00 00 00 00 00 00 00 00   ................
0x7f23c10dbd84  00 00 00 00 00 00 00 00 00 00 00 00 00 00 00 00   ................
0x7f23c10dbd94  00 00 00 00 00 00 00 00 00 00 00 00 00 00 00 00   ................
0x7f23c10dbda4  00 00 00 00 00 00 00 00 00 00 00 00 00 00 00 00   ................
0x7f23c10dbdb4  00 00 00 00 00 00 00 00 00 00 00 00 00 00 00 00   ................
0x7f23c10dbdc4  00 00 00 00 00 00 00 00 00 00 00 00 00 00 00 00   ................
0x7f23c10dbdd4  00 00 00 00 00 00 00 00 00 00 00 00 00 00 00 00   ................
0x7f23c10dbde4  00 00 00 00 00 00 00 00 00 00 00 00 00 00 00 00   ................
0x7f23c10dbdf4  00 00 00 00 00 00 00 00 00 00 00 00 00 00 00 00   ................
0x7f23c10dbe04  00 00 00 00 00 00 00 00 00 00 00 00 00 00 00 00   ................
0x7f23c10dbe14  00 00 00 00 00 00 00 00 00 00 00 00 00 00 00 00   ................
0x7f23c10dbe24  00 00 00 00 00 00 00 00 00 00 00 00 00 00 00 00   ................
0x7f23c10dbe34  00 00 00 00 00 00 00 00 00 00 00 00 00 00 00 00   ................
0x7f23c10dbe44  00 00 00 00 00 00 00 00 00 00 00 00 00 00 00 00   ................
0x7f23c10dbe54  00 00 00 00 00 00 00 00 00 00 00 00 00 00 00 00   ................
Task: smbd pid 2936 rule r1 addr 0x7f23c1d7d580
0x7f23c1d7d580  31 39 32 2e 31 36 38 2e 31 30 2e 32 30 30 00 00   192.168.10.200..
0x7f23c1d7d590  00 00 00 00 00 00 00 00 00 00 00 00 00 00 00 00   ................
0x7f23c1d7d5a0  00 00 00 00 00 00 00 00 00 00 00 00 00 00 00 00   ................
0x7f23c1d7d5b0  90 b2 6c c2 23 7f 00 00 00 00 00 00 00 00 00 00   ..l.#...........
0x7f23c1d7d5c0  31 39 32 2e 31 36 38 2e 31 30 2e 32 00 00 00 00   192.168.10.2....
0x7f23c1d7d5d0  00 00 00 00 00 00 00 00 00 00 00 00 00 00 00 00   ................
0x7f23c1d7d5e0  00 00 00 00 00 00 00 00 00 00 00 00 00 00 00 00   ................
0x7f23c1d7d5f0  00 00 00 00 00 00 00 00 01 00 00 00 00 00 00 00   ................
0x7f23c1d7d600  00 00 00 00 00 00 00 00 00 00 00 00 00 00 00 00   ................
0x7f23c1d7d610  00 00 00 00 00 00 00 00 f0 27 6c c2 23 7f 00 00   .........'l.#...
0x7f23c1d7d620  f0 c4 6c c2 23 7f 00 00 06 00 00 00 00 00 00 00   ..l.#...........
0x7f23c1d7d630  20 c2 6c c2 23 7f 00 00 e0 21 6c c2 23 7f 00 00   ..l.#....!l.#...
0x7f23c1d7d640  01 00 00 00 00 00 00 00 a0 a4 6b c2 23 7f 00 00   ..........k.#...
0x7f23c1d7d650  d0 a1 6b c2 23 7f 00 00 00 00 00 00 00 00 00 00   ..k.#...........
0x7f23c1d7d660  e0 da 6b c2 23 7f 00 00 10 d5 6b c2 23 7f 00 00   ..k.#.....k.#...
0x7f23c1d7d670  20 a5 6b c2 23 7f 00 00 00 00 00 00 00 00 00 00   ..k.#...........
Task: smbd pid 2936 rule r1 addr 0x7f23c26ba5e8
0x7f23c26ba5e8  31 39 32 2e 31 36 38 2e 31 30 2e 32 30 30 00 00   192.168.10.200..
0x7f23c26ba5f8  00 00 00 00 00 00 00 00 00 00 00 00 00 00 00 00   ................
0x7f23c26ba608  00 00 00 00 00 00 00 00 00 00 00 00 00 00 00 00   ................
0x7f23c26ba618  60 1f 6c c2 23 7f 00 00 70 d6 6b c2 23 7f 00 00   `.l.#...p.k.#...
0x7f23c26ba628  30 14 6c c2 23 7f 00 00 10 d5 6b c2 23 7f 00 00   0.l.#.....k.#...
0x7f23c26ba638  00 00 00 00 7c 01 00 00 30 4b 6c c2 23 7f 00 00   ....|...0Kl.#...
0x7f23c26ba648  00 00 00 00 00 00 00 00 f0 b1 6c c2 23 7f 00 00   ..........l.#...
0x7f23c26ba658  00 40 00 00 00 00 00 00 00 00 00 00 00 00 00 00   .@..............
0x7f23c26ba668  01 08 00 00 00 00 00 00 49 a7 00 00 00 00 00 00   ........I.......
0x7f23c26ba678  00 00 00 00 00 00 00 00 3e 00 00 00 00 00 00 00   ........>.......
0x7f23c26ba688  85 1c 00 00 01 00 00 00 60 4f 6c c2 23 7f 00 00   ........`Ol.#...
0x7f23c26ba698  00 00 00 00 00 00 00 00 00 00 00 00 00 00 00 00   ................
0x7f23c26ba6a8  7c 01 00 00 00 00 00 00 40 b9 6c c2 23 7f 00 00   |.......@.l.#...
0x7f23c26ba6b8  ff ff ff ff ff ff ff ff 00 00 00 00 00 00 00 00   ................
0x7f23c26ba6c8  00 00 00 00 00 00 00 00 01 01 00 00 00 00 00 00   ................
0x7f23c26ba6d8  00 00 00 00 00 00 00 00 01 00 00 00 04 41 00 00   .............A..
Task: smbd pid 2936 rule r1 addr 0x7f23c26c1f60
0x7f23c26c1f60  31 39 32 2e 31 36 38 2e 31 30 2e 32 30 30 00 4f   192.168.10.200.O
0x7f23c26c1f70  70 00 00 00 00 00 00 00 31 00 00 00 00 00 00 00   p.......1.......
0x7f23c26c1f80  2f 76 61 72 2f 72 75 6e 2f 73 61 6d 62 61 2f 73   /var/run/samba/s
0x7f23c26c1f90  65 73 73 69 6f 6e 69 64 2e 74 64 62 00 00 00 00   essionid.tdb....
0x7f23c26c1fa0  61 74 69 6f 6e 20 61 6e 31 00 00 00 00 00 00 00   ation.an1.......
0x7f23c26c1fb0  2f 76 61 72 2f 6c 69 62 2f 73 61 6d 62 61 2f 70   /var/lib/samba/p
0x7f23c26c1fc0  61 73 73 64 62 2e 74 64 62 00 00 00 00 00 00 00   assdb.tdb.......
0x7f23c26c1fd0  20 20 20 6d 65 73 73 61 31 00 00 00 00 00 00 00   ...messa1.......
0x7f23c26c1fe0  2f 76 61 72 2f 72 75 6e 2f 73 61 6d 62 61 2f 6e   /var/run/samba/n
0x7f23c26c1ff0  6f 74 69 66 79 2e 74 64 62 00 00 00 00 10 00 00   otify.tdb.......
0x7f23c26c2000  00 00 00 00 00 00 00 00 81 01 00 00 00 00 00 00   ................
0x7f23c26c2010  50 9e 6d c2 23 7f 00 00 00 20 6d c2 23 7f 00 00   P.m.#.....m.#...
0x7f23c26c2020  00 00 00 00 00 00 00 00 f0 44 6c c2 23 7f 00 00   .........Dl.#...
0x7f23c26c2030  00 00 00 00 00 00 00 00 00 00 00 00 00 00 00 00   ................
0x7f23c26c2040  d5 2e 94 c1 23 7f 00 00 28 01 00 00 00 00 00 00   ....#...(.......
0x7f23c26c2050  70 0c 15 e8 00 00 00 00 00 00 00 00 00 00 00 00   p...............
Task: smbd pid 2936 rule r1 addr 0x7f23c26c5270
0x7f23c26c5270  31 39 32 2e 31 36 38 2e 31 30 2e 32 30 30 00 00   192.168.10.200..
0x7f23c26c5280  40 00 00 00 00 00 00 00 c1 00 00 00 00 00 00 00   @...............
0x7f23c26c5290  90 40 6c c2 23 7f 00 00 80 5c 6c c2 23 7f 00 00   .@l.#....\l.#...
0x7f23c26c52a0  00 00 00 00 00 00 00 00 40 51 6c c2 23 7f 00 00   ........@Ql.#...
0x7f23c26c52b0  00 00 00 00 00 00 00 00 00 00 00 00 00 00 00 00   ................
0x7f23c26c52c0  ae f7 9d c1 23 7f 00 00 60 00 00 00 00 00 00 00   ....#...`.......
0x7f23c26c52d0  70 0c 15 e8 00 00 00 00 00 00 00 00 00 00 00 00   p...............
0x7f23c26c52e0  30 69 5f c1 23 7f 00 00 d0 64 5f c1 23 7f 00 00   0i_.#....d_.#...
0x7f23c26c52f0  e0 65 5f c1 23 7f 00 00 70 65 5f c1 23 7f 00 00   .e_.#...pe_.#...
0x7f23c26c5300  50 64 5f c1 23 7f 00 00 20 64 5f c1 23 7f 00 00   Pd_.#....d_.#...
0x7f23c26c5310  f0 63 5f c1 23 7f 00 00 c0 63 5f c1 23 7f 00 00   .c_.#....c_.#...
0x7f23c26c5320  90 63 5f c1 23 7f 00 00 80 64 5f c1 23 7f 00 00   .c_.#....d_.#...
0x7f23c26c5330  90 51 6c c2 23 7f 00 00 00 00 00 00 00 00 00 00   .Ql.#...........
0x7f23c26c5340  00 00 00 00 00 00 00 00 61 00 00 00 00 00 00 00   ........a.......
0x7f23c26c5350  00 00 00 00 00 00 00 00 00 00 00 00 00 00 00 00   ................
0x7f23c26c5360  40 51 6c c2 23 7f 00 00 b0 53 6c c2 23 7f 00 00   @Ql.#....Sl.#...
Task: smbd pid 2936 rule r1 addr 0x7f23c26c7bf7
0x7f23c26c7bf7  31 39 32 2e 31 36 38 2e 31 30 2e 32 30 30 00 69   192.168.10.200.i
0x7f23c26c7c07  62 2f 73 61 6d 62 61 00 00 f0 00 00 00 00 00 00   b/samba.........
0x7f23c26c7c17  00 41 00 00 00 00 00 00 00 50 8c 6c c2 23 7f 00   .A.......P.l.#..
0x7f23c26c7c27  00 a0 83 6c c2 23 7f 00 00 38 7c 6c c2 23 7f 00   ...l.#...8|l.#..
0x7f23c26c7c37  00 67 72 6f 75 70 00 00 00 00 00 00 00 00 00 00   .group..........
0x7f23c26c7c47  00 00 00 00 00 00 00 00 00 40 00 00 00 00 00 00   .........@......
0x7f23c26c7c57  00 61 00 00 00 00 00 00 00 60 e7 6c c2 23 7f 00   .a.......`.l.#..
0x7f23c26c7c67  00 00 00 00 00 00 00 00 00 00 00 00 00 00 00 00   ................
0x7f23c26c7c77  00 20 7d 6c c2 23 7f 00 00 c0 7c 6c c2 23 7f 00   ..}l.#....|l.#..
0x7f23c26c7c87  00 10 00 00 00 00 00 00 00 04 00 00 00 00 00 00   ................
0x7f23c26c7c97  00 04 01 02 00 00 00 00 00 16 02 00 00 00 e9 03   ................
0x7f23c26c7ca7  00 00 e9 03 00 00 00 00 00 2f 76 61 72 2f 63 61   ........./var/ca
0x7f23c26c7cb7  63 61 00 00 00 00 00 00 00 c0 e7 6c c2 23 7f 00   ca.........l.#..
0x7f23c26c7cc7  00 00 00 00 00 00 00 00 00 00 00 00 00 00 00 00   ................
0x7f23c26c7cd7  00 60 7c 6c c2 23 7f 00 00 10 76 6d c2 23 7f 00   .`|l.#....vm.#..
0x7f23c26c7ce7  00 04 00 00 00 00 00 00 00 10 00 00 00 00 00 00   ................
Task: smbd pid 2936 rule r1 addr 0x7f23c26cb290
0x7f23c26cb290  31 39 32 2e 31 36 38 2e 31 30 2e 32 30 30 00 00   192.168.10.200..
0x7f23c26cb2a0  20 00 00 00 00 00 00 00 31 00 00 00 00 00 00 00   ........1.......
0x7f23c26cb2b0  c0 29 6c c2 23 7f 00 00 00 00 00 00 00 00 00 00   .)l.#...........
0x7f23c26cb2c0  00 00 00 00 00 00 00 00 75 02 00 00 01 00 00 00   ........u.......
0x7f23c26cb2d0  30 00 00 00 00 00 00 00 61 00 00 00 00 00 00 00   0.......a.......
0x7f23c26cb2e0  00 00 00 00 00 00 00 00 00 00 00 00 00 00 00 00   ................
0x7f23c26cb2f0  00 b0 6c c2 23 7f 00 00 20 bb 6c c2 23 7f 00 00   ..l.#.....l.#...
0x7f23c26cb300  00 00 00 00 00 00 00 00 00 00 00 00 00 00 00 00   ................
0x7f23c26cb310  6b f4 9d c1 23 7f 00 00 08 00 00 00 00 00 00 00   k...#...........
0x7f23c26cb320  70 0c 15 e8 00 00 00 00 00 00 00 00 00 00 00 00   p...............
0x7f23c26cb330  80 da 6c c2 23 7f 00 00 31 00 00 00 00 00 00 00   ..l.#...1.......
0x7f23c26cb340  00 00 00 00 01 00 00 00 00 00 00 00 00 00 00 00   ................
0x7f23c26cb350  00 00 00 00 00 00 00 00 00 00 00 00 00 00 00 00   ................
0x7f23c26cb360  00 00 00 00 00 00 00 00 31 00 00 00 00 00 00 00   ........1.......
0x7f23c26cb370  f0 ea 6c c2 23 7f 00 00 60 d3 6c c2 23 7f 00 00   ..l.#...`.l.#...
0x7f23c26cb380  60 d3 6c c2 23 7f 00 00 40 66 d7 c1 23 7f 00 00   `.l.#...@f..#...
Task: smbd pid 2939 rule r1 addr 0x7f23c10a90d4
0x7f23c10a90d4  31 39 32 2e 31 36 38 2e 31 30 2e 32 30 30 00 00   192.168.10.200..
0x7f23c10a90e4  00 00 00 00 00 00 00 00 75 6f 63 6f 6e 74 72 6f   ........uocontro
0x7f23c10a90f4  6c 63 6c 69 65 6e 74 65 2d 70 63 00 00 00 00 00   lcliente-pc.....
0x7f23c10a9104  00 00 00 00 00 00 00 00 00 00 00 00 00 00 00 00   ................
0x7f23c10a9114  00 00 00 00 00 00 00 00 00 00 00 00 00 00 00 00   ................
0x7f23c10a9124  00 00 00 00 00 00 00 00 00 00 00 00 00 00 00 00   ................
0x7f23c10a9134  00 00 00 00 00 00 00 00 00 00 00 00 00 00 00 00   ................
0x7f23c10a9144  00 00 00 00 00 00 00 00 00 00 00 00 00 00 00 00   ................
0x7f23c10a9154  00 00 00 00 00 00 00 00 00 00 00 00 00 00 00 00   ................
0x7f23c10a9164  00 00 00 00 00 00 00 00 00 00 00 00 00 00 00 00   ................
0x7f23c10a9174  00 00 00 00 00 00 00 00 00 00 00 00 00 00 00 00   ................
0x7f23c10a9184  00 00 00 00 00 00 00 00 00 00 00 00 00 00 00 00   ................
0x7f23c10a9194  00 00 00 00 00 00 00 00 00 00 00 00 00 00 00 00   ................
0x7f23c10a91a4  00 00 00 00 00 00 00 00 00 00 00 00 00 00 00 00   ................
0x7f23c10a91b4  00 00 00 00 00 00 00 00 00 00 00 00 00 00 00 00   ................
0x7f23c10a91c4  00 00 00 00 00 00 00 00 00 00 00 00 00 00 00 00   ................
Task: smbd pid 2939 rule r1 addr 0x7f23c10a9534
0x7f23c10a9534  31 39 32 2e 31 36 38 2e 31 30 2e 32 30 30 00 00   192.168.10.200..
0x7f23c10a9544  00 00 00 00 00 00 00 00 75 6f 63 6f 6e 74 72 6f   ........uocontro
0x7f23c10a9554  6c 63 6c 69 65 6e 74 65 2d 70 63 00 00 00 00 00   lcliente-pc.....
0x7f23c10a9564  00 00 00 00 00 00 00 00 00 00 00 00 00 00 00 00   ................
0x7f23c10a9574  00 00 00 00 00 00 00 00 00 00 00 00 00 00 00 00   ................
0x7f23c10a9584  00 00 00 00 00 00 00 00 00 00 00 00 00 00 00 00   ................
0x7f23c10a9594  00 00 00 00 00 00 00 00 00 00 00 00 00 00 00 00   ................
0x7f23c10a95a4  00 00 00 00 00 00 00 00 00 00 00 00 00 00 00 00   ................
0x7f23c10a95b4  00 00 00 00 00 00 00 00 00 00 00 00 00 00 00 00   ................
0x7f23c10a95c4  00 00 00 00 00 00 00 00 00 00 00 00 00 00 00 00   ................
0x7f23c10a95d4  00 00 00 00 00 00 00 00 00 00 00 00 00 00 00 00   ................
0x7f23c10a95e4  00 00 00 00 00 00 00 00 00 00 00 00 00 00 00 00   ................
0x7f23c10a95f4  00 00 00 00 00 00 00 00 00 00 00 00 00 00 00 00   ................
0x7f23c10a9604  00 00 00 00 00 00 00 00 00 00 00 00 00 00 00 00   ................
0x7f23c10a9614  00 00 00 00 00 00 00 00 00 00 00 00 00 00 00 00   ................
0x7f23c10a9624  00 00 00 00 00 00 00 00 00 00 00 00 00 00 00 00   ................
Task: smbd pid 2939 rule r1 addr 0x7f23c10a9994
0x7f23c10a9994  31 39 32 2e 31 36 38 2e 31 30 2e 32 30 30 00 00   192.168.10.200..
0x7f23c10a99a4  00 00 00 00 00 00 00 00 00 00 00 00 00 00 00 00   ................
0x7f23c10a99b4  00 00 00 00 00 00 00 00 00 00 00 00 00 00 00 00   ................
0x7f23c10a99c4  00 00 00 00 00 00 00 00 00 00 00 00 00 00 00 00   ................
0x7f23c10a99d4  00 00 00 00 00 00 00 00 00 00 00 00 00 00 00 00   ................
0x7f23c10a99e4  00 00 00 00 00 00 00 00 00 00 00 00 00 00 00 00   ................
0x7f23c10a99f4  00 00 00 00 00 00 00 00 00 00 00 00 00 00 00 00   ................
0x7f23c10a9a04  00 00 00 00 00 00 00 00 00 00 00 00 00 00 00 00   ................
0x7f23c10a9a14  00 00 00 00 00 00 00 00 00 00 00 00 00 00 00 00   ................
0x7f23c10a9a24  00 00 00 00 00 00 00 00 00 00 00 00 00 00 00 00   ................
0x7f23c10a9a34  00 00 00 00 00 00 00 00 00 00 00 00 00 00 00 00   ................
0x7f23c10a9a44  00 00 00 00 00 00 00 00 00 00 00 00 00 00 00 00   ................
0x7f23c10a9a54  00 00 00 00 00 00 00 00 00 00 00 00 00 00 00 00   ................
0x7f23c10a9a64  00 00 00 00 00 00 00 00 00 00 00 00 00 00 00 00   ................
0x7f23c10a9a74  00 00 00 00 00 00 00 00 00 00 00 00 00 00 00 00   ................
0x7f23c10a9a84  00 00 00 00 00 00 00 00 00 00 00 00 00 00 00 00   ................
Task: smbd pid 2939 rule r1 addr 0x7f23c10a9df4
0x7f23c10a9df4  31 39 32 2e 31 36 38 2e 31 30 2e 32 30 30 00 00   192.168.10.200..
0x7f23c10a9e04  00 00 00 00 00 00 00 00 00 00 00 00 00 00 00 00   ................
0x7f23c10a9e14  00 00 00 00 00 00 00 00 00 00 00 00 00 00 00 00   ................
0x7f23c10a9e24  00 00 00 00 00 00 00 00 00 00 00 00 00 00 00 00   ................
0x7f23c10a9e34  00 00 00 00 00 00 00 00 00 00 00 00 00 00 00 00   ................
0x7f23c10a9e44  00 00 00 00 00 00 00 00 00 00 00 00 00 00 00 00   ................
0x7f23c10a9e54  00 00 00 00 00 00 00 00 00 00 00 00 00 00 00 00   ................
0x7f23c10a9e64  00 00 00 00 00 00 00 00 00 00 00 00 00 00 00 00   ................
0x7f23c10a9e74  00 00 00 00 00 00 00 00 00 00 00 00 00 00 00 00   ................
0x7f23c10a9e84  00 00 00 00 00 00 00 00 00 00 00 00 00 00 00 00   ................
0x7f23c10a9e94  00 00 00 00 00 00 00 00 00 00 00 00 00 00 00 00   ................
0x7f23c10a9ea4  00 00 00 00 00 00 00 00 00 00 00 00 00 00 00 00   ................
0x7f23c10a9eb4  00 00 00 00 00 00 00 00 00 00 00 00 00 00 00 00   ................
0x7f23c10a9ec4  00 00 00 00 00 00 00 00 00 00 00 00 00 00 00 00   ................
0x7f23c10a9ed4  00 00 00 00 00 00 00 00 00 00 00 00 00 00 00 00   ................
0x7f23c10a9ee4  00 00 00 00 00 00 00 00 00 00 00 00 00 00 00 00   ................
Task: smbd pid 2939 rule r1 addr 0x7f23c10db16c
0x7f23c10db16c  31 39 32 2e 31 36 38 2e 31 30 2e 32 30 30 00 00   192.168.10.200..
0x7f23c10db17c  00 00 00 00 00 00 00 00 00 00 00 00 00 00 00 00   ................
0x7f23c10db18c  00 00 00 00 00 00 00 00 00 00 00 00 00 00 00 00   ................
0x7f23c10db19c  00 00 00 00 00 00 00 00 00 00 00 00 00 00 00 00   ................
0x7f23c10db1ac  00 00 00 00 00 00 00 00 00 00 00 00 00 00 00 00   ................
0x7f23c10db1bc  00 00 00 00 00 00 00 00 00 00 00 00 00 00 00 00   ................
0x7f23c10db1cc  00 00 00 00 00 00 00 00 00 00 00 00 00 00 00 00   ................
0x7f23c10db1dc  00 00 00 00 00 00 00 00 00 00 00 00 00 00 00 00   ................
0x7f23c10db1ec  00 00 00 00 00 00 00 00 00 00 00 00 00 00 00 00   ................
0x7f23c10db1fc  00 00 00 00 00 00 00 00 00 00 00 00 00 00 00 00   ................
0x7f23c10db20c  00 00 00 00 00 00 00 00 00 00 00 00 00 00 00 00   ................
0x7f23c10db21c  00 00 00 00 00 00 00 00 00 00 00 00 00 00 00 00   ................
0x7f23c10db22c  00 00 00 00 00 00 00 00 00 00 00 00 00 00 00 00   ................
0x7f23c10db23c  00 00 00 00 00 00 00 00 00 00 00 00 00 00 00 00   ................
0x7f23c10db24c  00 00 00 00 00 00 00 00 00 00 00 00 00 00 00 00   ................
0x7f23c10db25c  00 00 00 00 00 00 00 00 00 00 00 00 00 00 00 00   ................
Task: smbd pid 2939 rule r1 addr 0x7f23c10db584
0x7f23c10db584  31 39 32 2e 31 36 38 2e 31 30 2e 32 30 30 00 00   192.168.10.200..
0x7f23c10db594  00 00 00 00 00 00 00 00 00 00 00 00 00 00 00 00   ................
0x7f23c10db5a4  00 00 00 00 00 00 00 00 00 00 00 00 00 00 00 00   ................
0x7f23c10db5b4  00 00 00 00 00 00 00 00 00 00 00 00 00 00 00 00   ................
0x7f23c10db5c4  00 00 00 00 00 00 00 00 00 00 00 00 00 00 00 00   ................
0x7f23c10db5d4  00 00 00 00 00 00 00 00 00 00 00 00 00 00 00 00   ................
0x7f23c10db5e4  00 00 00 00 00 00 00 00 00 00 00 00 00 00 00 00   ................
0x7f23c10db5f4  00 00 00 00 00 00 00 00 00 00 00 00 00 00 00 00   ................
0x7f23c10db604  00 00 00 00 00 00 00 00 00 00 00 00 00 00 00 00   ................
0x7f23c10db614  00 00 00 00 00 00 00 00 00 00 00 00 00 00 00 00   ................
0x7f23c10db624  00 00 00 00 00 00 00 00 00 00 00 00 00 00 00 00   ................
0x7f23c10db634  00 00 00 00 00 00 00 00 00 00 00 00 00 00 00 00   ................
0x7f23c10db644  00 00 00 00 00 00 00 00 00 00 00 00 00 00 00 00   ................
0x7f23c10db654  00 00 00 00 00 00 00 00 00 00 00 00 00 00 00 00   ................
0x7f23c10db664  00 00 00 00 00 00 00 00 00 00 00 00 00 00 00 00   ................
0x7f23c10db674  00 00 00 00 00 00 00 00 00 00 00 00 00 00 00 00   ................
Task: smbd pid 2939 rule r1 addr 0x7f23c10db94c
0x7f23c10db94c  31 39 32 2e 31 36 38 2e 31 30 2e 32 30 30 00 00   192.168.10.200..
0x7f23c10db95c  00 00 00 00 00 00 00 00 00 00 00 00 00 00 00 00   ................
0x7f23c10db96c  00 00 00 00 00 00 00 00 00 00 00 00 00 00 00 00   ................
0x7f23c10db97c  00 00 00 00 00 00 00 00 00 00 00 00 00 00 00 00   ................
0x7f23c10db98c  00 00 00 00 00 00 00 00 00 00 00 00 00 00 00 00   ................
0x7f23c10db99c  00 00 00 00 00 00 00 00 00 00 00 00 00 00 00 00   ................
0x7f23c10db9ac  00 00 00 00 00 00 00 00 00 00 00 00 00 00 00 00   ................
0x7f23c10db9bc  00 00 00 00 00 00 00 00 00 00 00 00 00 00 00 00   ................
0x7f23c10db9cc  00 00 00 00 00 00 00 00 00 00 00 00 00 00 00 00   ................
0x7f23c10db9dc  00 00 00 00 00 00 00 00 00 00 00 00 00 00 00 00   ................
0x7f23c10db9ec  00 00 00 00 00 00 00 00 00 00 00 00 00 00 00 00   ................
0x7f23c10db9fc  00 00 00 00 00 00 00 00 00 00 00 00 00 00 00 00   ................
0x7f23c10dba0c  00 00 00 00 00 00 00 00 00 00 00 00 00 00 00 00   ................
0x7f23c10dba1c  00 00 00 00 00 00 00 00 00 00 00 00 00 00 00 00   ................
0x7f23c10dba2c  00 00 00 00 00 00 00 00 00 00 00 00 00 00 00 00   ................
0x7f23c10dba3c  00 00 00 00 00 00 00 00 00 00 00 00 00 00 00 00   ................
Task: smbd pid 2939 rule r1 addr 0x7f23c10dbd64
0x7f23c10dbd64  31 39 32 2e 31 36 38 2e 31 30 2e 32 30 30 00 00   192.168.10.200..
0x7f23c10dbd74  00 00 00 00 00 00 00 00 00 00 00 00 00 00 00 00   ................
0x7f23c10dbd84  00 00 00 00 00 00 00 00 00 00 00 00 00 00 00 00   ................
0x7f23c10dbd94  00 00 00 00 00 00 00 00 00 00 00 00 00 00 00 00   ................
0x7f23c10dbda4  00 00 00 00 00 00 00 00 00 00 00 00 00 00 00 00   ................
0x7f23c10dbdb4  00 00 00 00 00 00 00 00 00 00 00 00 00 00 00 00   ................
0x7f23c10dbdc4  00 00 00 00 00 00 00 00 00 00 00 00 00 00 00 00   ................
0x7f23c10dbdd4  00 00 00 00 00 00 00 00 00 00 00 00 00 00 00 00   ................
0x7f23c10dbde4  00 00 00 00 00 00 00 00 00 00 00 00 00 00 00 00   ................
0x7f23c10dbdf4  00 00 00 00 00 00 00 00 00 00 00 00 00 00 00 00   ................
0x7f23c10dbe04  00 00 00 00 00 00 00 00 00 00 00 00 00 00 00 00   ................
0x7f23c10dbe14  00 00 00 00 00 00 00 00 00 00 00 00 00 00 00 00   ................
0x7f23c10dbe24  00 00 00 00 00 00 00 00 00 00 00 00 00 00 00 00   ................
0x7f23c10dbe34  00 00 00 00 00 00 00 00 00 00 00 00 00 00 00 00   ................
0x7f23c10dbe44  00 00 00 00 00 00 00 00 00 00 00 00 00 00 00 00   ................
0x7f23c10dbe54  00 00 00 00 00 00 00 00 00 00 00 00 00 00 00 00   ................
Task: smbd pid 2939 rule r1 addr 0x7f23c1d7d580
0x7f23c1d7d580  31 39 32 2e 31 36 38 2e 31 30 2e 32 30 30 00 00   192.168.10.200..
0x7f23c1d7d590  00 00 00 00 00 00 00 00 00 00 00 00 00 00 00 00   ................
0x7f23c1d7d5a0  00 00 00 00 00 00 00 00 00 00 00 00 00 00 00 00   ................
0x7f23c1d7d5b0  90 b2 6c c2 23 7f 00 00 00 00 00 00 00 00 00 00   ..l.#...........
0x7f23c1d7d5c0  31 39 32 2e 31 36 38 2e 31 30 2e 32 00 00 00 00   192.168.10.2....
0x7f23c1d7d5d0  00 00 00 00 00 00 00 00 00 00 00 00 00 00 00 00   ................
0x7f23c1d7d5e0  00 00 00 00 00 00 00 00 00 00 00 00 00 00 00 00   ................
0x7f23c1d7d5f0  00 00 00 00 00 00 00 00 01 00 00 00 00 00 00 00   ................
0x7f23c1d7d600  00 00 00 00 00 00 00 00 00 00 00 00 00 00 00 00   ................
0x7f23c1d7d610  00 00 00 00 00 00 00 00 f0 27 6c c2 23 7f 00 00   .........'l.#...
0x7f23c1d7d620  f0 c4 6c c2 23 7f 00 00 0c 00 00 00 00 00 00 00   ..l.#...........
0x7f23c1d7d630  20 c2 6c c2 23 7f 00 00 e0 21 6c c2 23 7f 00 00   ..l.#....!l.#...
0x7f23c1d7d640  01 00 00 00 00 00 00 00 a0 a4 6b c2 23 7f 00 00   ..........k.#...
0x7f23c1d7d650  d0 a1 6b c2 23 7f 00 00 00 00 00 00 00 00 00 00   ..k.#...........
0x7f23c1d7d660  e0 da 6b c2 23 7f 00 00 10 d5 6b c2 23 7f 00 00   ..k.#.....k.#...
0x7f23c1d7d670  20 a5 6b c2 23 7f 00 00 00 00 00 00 00 00 00 00   ..k.#...........
Task: smbd pid 2939 rule r1 addr 0x7f23c26ba5e8
0x7f23c26ba5e8  31 39 32 2e 31 36 38 2e 31 30 2e 32 30 30 00 00   192.168.10.200..
0x7f23c26ba5f8  00 00 00 00 00 00 00 00 00 00 00 00 00 00 00 00   ................
0x7f23c26ba608  00 00 00 00 00 00 00 00 00 00 00 00 00 00 00 00   ................
0x7f23c26ba618  e0 d6 6b c2 23 7f 00 00 70 f0 6b c2 23 7f 00 00   ..k.#...p.k.#...
0x7f23c26ba628  90 80 6d c2 23 7f 00 00 10 d5 6b c2 23 7f 00 00   ..m.#.....k.#...
0x7f23c26ba638  00 00 00 00 b2 01 00 00 30 4b 6c c2 23 7f 00 00   ........0Kl.#...
0x7f23c26ba648  00 00 00 00 00 00 00 00 f0 b1 6c c2 23 7f 00 00   ..........l.#...
0x7f23c26ba658  00 40 00 00 00 00 00 00 00 00 00 00 00 00 00 00   .@..............
0x7f23c26ba668  01 08 00 00 00 00 00 00 44 a8 00 00 00 00 00 00   ........D.......
0x7f23c26ba678  00 00 00 00 00 00 00 00 09 00 00 00 00 00 00 00   ................
0x7f23c26ba688  ee 1c 00 00 01 00 00 00 60 4f 6c c2 23 7f 00 00   ........`Ol.#...
0x7f23c26ba698  00 00 00 00 00 00 00 00 00 00 00 00 00 00 00 00   ................
0x7f23c26ba6a8  b2 01 00 00 00 00 00 00 40 b9 6c c2 23 7f 00 00   ........@.l.#...
0x7f23c26ba6b8  ff ff ff ff ff ff ff ff 00 00 00 00 00 00 00 00   ................
0x7f23c26ba6c8  00 00 00 00 00 00 00 00 01 01 00 00 00 00 00 00   ................
0x7f23c26ba6d8  00 00 00 00 00 00 00 00 01 00 00 00 04 41 00 00   .............A..
Task: smbd pid 2939 rule r1 addr 0x7f23c26bd6e0
0x7f23c26bd6e0  31 39 32 2e 31 36 38 2e 31 30 2e 32 30 30 00 00   192.168.10.200..
0x7f23c26bd6f0  6e 20 74 68 65 20 73 61 81 00 00 00 00 00 00 00   n.the.sa........
0x7f23c26bd700  a0 44 6d c2 23 7f 00 00 00 00 00 00 00 00 00 00   .Dm.#...........
0x7f23c26bd710  90 b8 6b c2 23 7f 00 00 00 00 00 00 00 00 00 00   ..k.#...........
0x7f23c26bd720  00 00 00 00 00 00 00 00 00 00 00 00 00 00 00 00   ................
0x7f23c26bd730  70 fb 9d c1 23 7f 00 00 28 00 00 00 00 00 00 00   p...#...(.......
0x7f23c26bd740  70 0c 15 e8 77 6f 72 64 00 00 00 00 00 00 00 00   p...word........
0x7f23c26bd750  1d 00 00 00 11 00 00 00 1c 00 00 00 11 00 01 00   ................
0x7f23c26bd760  06 00 00 00 11 00 00 00 19 00 00 00 11 00 00 00   ................
0x7f23c26bd770  19 00 00 00 11 00 00 00 81 00 00 00 00 00 00 00   ................
0x7f23c26bd780  90 90 6d c2 23 7f 00 00 00 00 00 00 00 00 00 00   ..m.#...........
0x7f23c26bd790  40 a0 6b c2 23 7f 00 00 00 00 00 00 00 00 00 00   @.k.#...........
0x7f23c26bd7a0  00 00 00 00 00 00 00 00 00 00 00 00 00 00 00 00   ................
0x7f23c26bd7b0  d0 d7 6b c2 23 7f 00 00 27 00 00 00 00 00 00 00   ..k.#...'.......
0x7f23c26bd7c0  70 0c 15 e8 75 65 0a 0a 00 00 00 00 00 00 00 00   p...ue..........
0x7f23c26bd7d0  2f 76 61 72 2f 6c 6f 67 2f 73 61 6d 62 61 2f 6c   /var/log/samba/l
Task: smbd pid 2939 rule r1 addr 0x7f23c26c4957
0x7f23c26c4957  31 39 32 2e 31 36 38 2e 31 30 2e 32 30 30 00 38   192.168.10.200.8
0x7f23c26c4967  2e 31 30 2e 32 30 30 00 74 f0 00 00 00 00 00 00   .10.200.t.......
0x7f23c26c4977  00 61 00 00 00 00 00 00 00 f0 43 6c c2 23 7f 00   .a........Cl.#..
0x7f23c26c4987  00 b0 4d 6c c2 23 7f 00 00 00 00 00 00 00 00 00   ..Ml.#..........
0x7f23c26c4997  00 e0 49 6c c2 23 7f 00 00 00 00 00 00 00 00 00   ..Il.#..........
0x7f23c26c49a7  00 00 00 00 00 00 00 00 00 6b f4 9d c1 23 7f 00   .........k...#..
0x7f23c26c49b7  00 08 00 00 00 00 00 00 00 70 0c 15 e8 00 00 00   .........p......
0x7f23c26c49c7  00 00 00 00 00 00 00 00 00 50 4b 6c c2 23 7f 00   .........PKl.#..
0x7f23c26c49d7  00 81 00 00 00 00 00 00 00 00 00 00 00 00 00 00   ................
0x7f23c26c49e7  00 00 00 00 00 00 00 00 00 80 49 6c c2 23 7f 00   ..........Il.#..
0x7f23c26c49f7  00 60 4a 6c c2 23 7f 00 00 40 6d 6d c2 23 7f 00   .`Jl.#...@mm.#..
0x7f23c26c4a07  00 50 5b 5f c1 23 7f 00 00 96 f4 9d c1 23 7f 00   .P[_.#.......#..
0x7f23c26c4a17  00 20 00 00 00 00 00 00 00 70 0c 15 e8 00 00 00   .........p......
0x7f23c26c4a27  00 00 00 00 00 00 00 00 00 50 4b 6c c2 23 7f 00   .........PKl.#..
0x7f23c26c4a37  00 b0 4a 6c c2 23 7f 00 00 00 46 6c c2 23 7f 00   ..Jl.#....Fl.#..
0x7f23c26c4a47  00 60 4e 6c c2 23 7f 00 00 00 00 00 00 00 00 00   .`Nl.#..........
Task: smbd pid 2939 rule r1 addr 0x7f23c26ca560
0x7f23c26ca560  31 39 32 2e 31 36 38 2e 31 30 2e 32 30 30 00 00   192.168.10.200..
0x7f23c26ca570  40 00 00 00 00 00 00 00 61 00 00 00 00 00 00 00   @.......a.......
0x7f23c26ca580  00 00 00 00 00 00 00 00 e0 a5 6c c2 23 7f 00 00   ..........l.#...
0x7f23c26ca590  00 00 00 00 00 00 00 00 00 00 00 00 00 00 00 00   ................
0x7f23c26ca5a0  00 00 00 00 00 00 00 00 00 00 00 00 00 00 00 00   ................
0x7f23c26ca5b0  d0 a5 6c c2 23 7f 00 00 07 00 00 00 00 00 00 00   ..l.#...........
0x7f23c26ca5c0  70 0c 15 e8 00 00 00 00 00 00 00 00 00 00 00 00   p...............
0x7f23c26ca5d0  6e 6f 62 6f 64 79 00 00 61 00 00 00 00 00 00 00   nobody..a.......
0x7f23c26ca5e0  80 a5 6c c2 23 7f 00 00 40 a6 6c c2 23 7f 00 00   ..l.#...@.l.#...
0x7f23c26ca5f0  00 00 00 00 00 00 00 00 00 00 00 00 00 00 00 00   ................
0x7f23c26ca600  00 00 00 00 00 00 00 00 00 00 00 00 00 00 00 00   ................
0x7f23c26ca610  30 a6 6c c2 23 7f 00 00 02 00 00 00 00 00 00 00   0.l.#...........
0x7f23c26ca620  70 0c 15 e8 00 00 00 00 00 00 00 00 00 00 00 00   p...............
0x7f23c26ca630  78 00 6f 74 00 00 00 00 61 00 00 00 00 00 00 00   x.ot....a.......
0x7f23c26ca640  e0 a5 6c c2 23 7f 00 00 a0 a6 6c c2 23 7f 00 00   ..l.#.....l.#...
0x7f23c26ca650  00 00 00 00 00 00 00 00 00 00 00 00 00 00 00 00   ................
Task: smbd pid 2939 rule r1 addr 0x7f23c26cb290
0x7f23c26cb290  31 39 32 2e 31 36 38 2e 31 30 2e 32 30 30 00 00   192.168.10.200..
0x7f23c26cb2a0  20 00 00 00 00 00 00 00 31 00 00 00 00 00 00 00   ........1.......
0x7f23c26cb2b0  a0 22 6c c2 23 7f 00 00 10 a1 6c c2 23 7f 00 00   ."l.#.....l.#...
0x7f23c26cb2c0  00 00 00 00 00 00 00 00 74 02 00 00 01 00 00 00   ........t.......
0x7f23c26cb2d0  30 00 00 00 00 00 00 00 61 00 00 00 00 00 00 00   0.......a.......
0x7f23c26cb2e0  00 00 00 00 00 00 00 00 00 00 00 00 00 00 00 00   ................
0x7f23c26cb2f0  00 b0 6c c2 23 7f 00 00 20 bb 6c c2 23 7f 00 00   ..l.#.....l.#...
0x7f23c26cb300  00 00 00 00 00 00 00 00 00 00 00 00 00 00 00 00   ................
0x7f23c26cb310  6b f4 9d c1 23 7f 00 00 08 00 00 00 00 00 00 00   k...#...........
0x7f23c26cb320  70 0c 15 e8 00 00 00 00 00 00 00 00 00 00 00 00   p...............
0x7f23c26cb330  80 da 6c c2 23 7f 00 00 61 00 00 00 00 00 00 00   ..l.#...a.......
0x7f23c26cb340  00 81 6c c2 23 7f 00 00 60 c4 6c c2 23 7f 00 00   ..l.#...`.l.#...
0x7f23c26cb350  00 00 00 00 00 00 00 00 00 00 00 00 00 00 00 00   ................
0x7f23c26cb360  00 00 00 00 00 00 00 00 00 00 00 00 00 00 00 00   ................
0x7f23c26cb370  60 21 9c c1 23 7f 00 00 04 00 00 00 00 00 00 00   `!..#...........
0x7f23c26cb380  70 0c 15 e8 00 00 00 00 00 00 00 00 00 00 00 00   p...............
Task: apache2 pid 3009 rule r1 addr 0x7fe9ee172448
0x7fe9ee172448  31 39 32 2e 31 36 38 2e 31 30 2e 32 30 30 00 00   192.168.10.200..
0x7fe9ee172458  00 00 00 00 00 00 00 00 00 00 00 00 00 00 00 00   ................
0x7fe9ee172468  47 45 54 20 2f 69 6e 64 65 78 2e 70 68 70 3f 6f   GET./index.php?o
0x7fe9ee172478  70 74 69 6f 6e 3d 63 6f 6d 5f 61 6a 61 78 26 66   ption=com_ajax&f
0x7fe9ee172488  6f 72 6d 61 74 3d 6a 73 6f 6e 20 48 54 54 50 2f   ormat=json.HTTP/
0x7fe9ee172498  31 2e 31 00 4e 2b 53 45 4c 45 43 54 20 31 2c 00   1.1.N+SELECT.1,.
0x7fe9ee1724a8  55 4f 43 6f 6e 74 72 6f 6c 2e 75 6f 63 6f 6e 74   UOControl.uocont
0x7fe9ee1724b8  72 6f 6c 2e 63 6f 6d 00 00 00 00 00 00 00 00 00   rol.com.........
0x7fe9ee1724c8  00 00 00 00 00 00 00 00 00 00 00 00 00 00 00 00   ................
0x7fe9ee1724d8  00 00 00 00 00 00 00 00 00 00 00 00 00 00 00 00   ................
0x7fe9ee1724e8  00 00 00 00 00 00 00 00 00 00 00 00 00 00 00 00   ................
0x7fe9ee1724f8  00 00 00 00 00 00 00 00 00 00 00 00 00 00 00 00   ................
0x7fe9ee172508  00 00 00 00 00 00 00 00 00 00 00 00 00 00 00 00   ................
0x7fe9ee172518  00 00 00 00 00 00 00 00 00 00 00 00 00 00 00 00   ................
0x7fe9ee172528  00 00 00 00 00 00 00 00 00 00 00 00 00 00 00 00   ................
0x7fe9ee172538  00 00 00 00 00 00 00 00 00 00 00 00 00 00 00 00   ................
Task: apache2 pid 3010 rule r1 addr 0x7fe9ee172448
0x7fe9ee172448  31 39 32 2e 31 36 38 2e 31 30 2e 32 30 30 00 00   192.168.10.200..
0x7fe9ee172458  00 00 00 00 00 00 00 00 00 00 00 00 00 00 00 00   ................
0x7fe9ee172468  47 45 54 20 2f 69 6e 64 65 78 2e 70 68 70 3f 6f   GET./index.php?o
0x7fe9ee172478  70 74 69 6f 6e 3d 63 6f 6d 5f 61 6a 61 78 26 66   ption=com_ajax&f
0x7fe9ee172488  6f 72 6d 61 74 3d 6a 73 6f 6e 20 48 54 54 50 2f   ormat=json.HTTP/
0x7fe9ee172498  31 2e 31 00 4e 2b 53 45 4c 45 43 54 20 31 2c 00   1.1.N+SELECT.1,.
0x7fe9ee1724a8  55 4f 43 6f 6e 74 72 6f 6c 2e 75 6f 63 6f 6e 74   UOControl.uocont
0x7fe9ee1724b8  72 6f 6c 2e 63 6f 6d 00 00 00 00 00 00 00 00 00   rol.com.........
0x7fe9ee1724c8  00 00 00 00 00 00 00 00 00 00 00 00 00 00 00 00   ................
0x7fe9ee1724d8  00 00 00 00 00 00 00 00 00 00 00 00 00 00 00 00   ................
0x7fe9ee1724e8  00 00 00 00 00 00 00 00 00 00 00 00 00 00 00 00   ................
0x7fe9ee1724f8  00 00 00 00 00 00 00 00 00 00 00 00 00 00 00 00   ................
0x7fe9ee172508  00 00 00 00 00 00 00 00 00 00 00 00 00 00 00 00   ................
0x7fe9ee172518  00 00 00 00 00 00 00 00 00 00 00 00 00 00 00 00   ................
0x7fe9ee172528  00 00 00 00 00 00 00 00 00 00 00 00 00 00 00 00   ................
0x7fe9ee172538  00 00 00 00 00 00 00 00 00 00 00 00 00 00 00 00   ................
Task: apache2 pid 3013 rule r1 addr 0x7fe9ee172448
0x7fe9ee172448  31 39 32 2e 31 36 38 2e 31 30 2e 32 30 30 00 00   192.168.10.200..
0x7fe9ee172458  00 00 00 00 00 00 00 00 00 00 00 00 00 00 00 00   ................
0x7fe9ee172468  47 45 54 20 2f 69 6e 64 65 78 2e 70 68 70 3f 6f   GET./index.php?o
0x7fe9ee172478  70 74 69 6f 6e 3d 63 6f 6d 5f 61 6a 61 78 26 66   ption=com_ajax&f
0x7fe9ee172488  6f 72 6d 61 74 3d 6a 73 6f 6e 20 48 54 54 50 2f   ormat=json.HTTP/
0x7fe9ee172498  31 2e 31 00 4e 2b 53 45 4c 45 43 54 20 31 2c 00   1.1.N+SELECT.1,.
0x7fe9ee1724a8  55 4f 43 6f 6e 74 72 6f 6c 2e 75 6f 63 6f 6e 74   UOControl.uocont
0x7fe9ee1724b8  72 6f 6c 2e 63 6f 6d 00 00 00 00 00 00 00 00 00   rol.com.........
0x7fe9ee1724c8  00 00 00 00 00 00 00 00 00 00 00 00 00 00 00 00   ................
0x7fe9ee1724d8  00 00 00 00 00 00 00 00 00 00 00 00 00 00 00 00   ................
0x7fe9ee1724e8  00 00 00 00 00 00 00 00 00 00 00 00 00 00 00 00   ................
0x7fe9ee1724f8  00 00 00 00 00 00 00 00 00 00 00 00 00 00 00 00   ................
0x7fe9ee172508  00 00 00 00 00 00 00 00 00 00 00 00 00 00 00 00   ................
0x7fe9ee172518  00 00 00 00 00 00 00 00 00 00 00 00 00 00 00 00   ................
0x7fe9ee172528  00 00 00 00 00 00 00 00 00 00 00 00 00 00 00 00   ................
0x7fe9ee172538  00 00 00 00 00 00 00 00 00 00 00 00 00 00 00 00   ................
Task: apache2 pid 3014 rule r1 addr 0x7fe9ee15f798
0x7fe9ee15f798  31 39 32 2e 31 36 38 2e 31 30 2e 32 30 30 20 2d   192.168.10.200.-
0x7fe9ee15f7a8  20 2d 20 5b 30 33 2f 4a 75 6c 2f 32 30 32 30 3a   .-.[03/Jul/2020:
0x7fe9ee15f7b8  31 30 3a 33 30 3a 31 32 20 2b 30 32 30 30 5d 20   10:30:12.+0200].
0x7fe9ee15f7c8  22 47 45 54 20 2f 69 6e 64 65 78 2e 70 68 70 3f   "GET./index.php?
0x7fe9ee15f7d8  6f 70 74 69 6f 6e 3d 63 6f 6d 5f 61 6a 61 78 26   option=com_ajax&
0x7fe9ee15f7e8  66 6f 72 6d 61 74 3d 6a 73 6f 6e 20 48 54 54 50   format=json.HTTP
0x7fe9ee15f7f8  2f 31 2e 31 22 20 32 30 30 20 35 34 37 20 22 68   /1.1".200.547."h
0x7fe9ee15f808  74 74 70 3a 2f 2f 31 39 32 2e 31 36 38 2e 31 30   ttp://192.168.10
0x7fe9ee15f818  2e 32 2f 22 20 22 4d 6f 7a 69 6c 6c 61 2f 35 2e   .2/"."Mozilla/5.
0x7fe9ee15f828  30 20 28 58 31 31 3b 20 55 62 75 6e 74 75 3b 20   0.(X11;.Ubuntu;.
0x7fe9ee15f838  4c 69 6e 75 78 20 78 38 36 5f 36 34 3b 20 72 76   Linux.x86_64;.rv
0x7fe9ee15f848  3a 36 39 2e 30 29 20 47 65 63 6b 6f 2f 32 30 31   :69.0).Gecko/201
0x7fe9ee15f858  30 30 31 30 31 20 46 69 72 65 66 6f 78 2f 36 39   00101.Firefox/69
0x7fe9ee15f868  2e 30 22 0a 30 00 00 00 f0 a2 32 ee e9 7f 00 00   .0".0.....2.....
0x7fe9ee15f878  b0 5b 16 ee e9 7f 00 00 c8 ca 16 ee e9 7f 00 00   .[..............
0x7fe9ee15f888  a0 e0 15 ee e9 7f 00 00 41 63 63 65 70 74 2d 45   ........Accept-E
Task: apache2 pid 3014 rule r1 addr 0x7fe9ee16c9a8
0x7fe9ee16c9a8  31 39 32 2e 31 36 38 2e 31 30 2e 32 30 30 00 00   192.168.10.200..
0x7fe9ee16c9b8  00 00 00 00 00 00 00 00 00 00 00 00 00 00 00 00   ................
0x7fe9ee16c9c8  10 96 32 ee e9 7f 00 00 00 00 00 00 00 00 00 00   ..2.............
0x7fe9ee16c9d8  38 ca 16 ee e9 7f 00 00 00 00 00 00 00 00 00 00   8...............
0x7fe9ee16c9e8  90 c2 16 ee e9 7f 00 00 00 9c 32 ee e9 7f 00 00   ..........2.....
0x7fe9ee16c9f8  00 00 00 00 00 00 00 00 60 ca 16 ee e9 7f 00 00   ........`.......
0x7fe9ee16ca08  00 00 00 00 00 00 00 00 90 c2 16 ee e9 7f 00 00   ................
0x7fe9ee16ca18  a0 c0 16 ee e9 7f 00 00 90 c2 16 ee e9 7f 00 00   ................
0x7fe9ee16ca28  80 cb 16 ee e9 7f 00 00 f0 ca 16 ee e9 7f 00 00   ................
0x7fe9ee16ca38  b0 da 32 ee e9 7f 00 00 18 ca 16 ee e9 7f 00 00   ..2.............
0x7fe9ee16ca48  00 00 00 00 00 00 00 00 00 00 00 00 00 00 00 00   ................
0x7fe9ee16ca58  90 c2 16 ee e9 7f 00 00 50 e1 32 ee e9 7f 00 00   ........P.2.....
0x7fe9ee16ca68  18 ca 16 ee e9 7f 00 00 00 00 00 00 00 00 00 00   ................
0x7fe9ee16ca78  00 00 00 00 00 00 00 00 90 c2 16 ee e9 7f 00 00   ................
0x7fe9ee16ca88  00 00 00 00 00 00 00 00 00 00 00 00 00 00 00 00   ................
0x7fe9ee16ca98  f4 01 00 00 14 00 00 00 28 00 00 00 00 00 00 00   ........(.......
Task: apache2 pid 3014 rule r1 addr 0x7fe9ee172448
0x7fe9ee172448  31 39 32 2e 31 36 38 2e 31 30 2e 32 30 30 00 00   192.168.10.200..
0x7fe9ee172458  00 00 00 00 00 00 00 00 00 00 00 00 00 00 00 00   ................
0x7fe9ee172468  47 45 54 20 2f 69 6e 64 65 78 2e 70 68 70 3f 6f   GET./index.php?o
0x7fe9ee172478  70 74 69 6f 6e 3d 63 6f 6d 5f 61 6a 61 78 26 66   ption=com_ajax&f
0x7fe9ee172488  6f 72 6d 61 74 3d 6a 73 6f 6e 20 48 54 54 50 2f   ormat=json.HTTP/
0x7fe9ee172498  31 2e 31 00 4e 2b 53 45 4c 45 43 54 20 31 2c 00   1.1.N+SELECT.1,.
0x7fe9ee1724a8  55 4f 43 6f 6e 74 72 6f 6c 2e 75 6f 63 6f 6e 74   UOControl.uocont
0x7fe9ee1724b8  72 6f 6c 2e 63 6f 6d 00 00 00 00 00 00 00 00 00   rol.com.........
0x7fe9ee1724c8  00 00 00 00 00 00 00 00 00 00 00 00 00 00 00 00   ................
0x7fe9ee1724d8  00 00 00 00 00 00 00 00 00 00 00 00 00 00 00 00   ................
0x7fe9ee1724e8  00 00 00 00 00 00 00 00 00 00 00 00 00 00 00 00   ................
0x7fe9ee1724f8  00 00 00 00 00 00 00 00 00 00 00 00 00 00 00 00   ................
0x7fe9ee172508  00 00 00 00 00 00 00 00 00 00 00 00 00 00 00 00   ................
0x7fe9ee172518  00 00 00 00 00 00 00 00 00 00 00 00 00 00 00 00   ................
0x7fe9ee172528  00 00 00 00 00 00 00 00 00 00 00 00 00 00 00 00   ................
0x7fe9ee172538  00 00 00 00 00 00 00 00 00 00 00 00 00 00 00 00   ................
Task: apache2 pid 3014 rule r1 addr 0x7fe9eff83458
0x7fe9eff83458  31 39 32 2e 31 36 38 2e 31 30 2e 32 30 30 00 24   192.168.10.200.$
0x7fe9eff83468  09 d7 8d a5 76 d2 81 00 e5 8f 32 49 98 4c 98 6e   ....v.....2I.L.n
0x7fe9eff83478  51 00 00 00 00 00 00 00 38 08 00 00 00 00 00 00   Q.......8.......
0x7fe9eff83488  20 00 00 00 00 00 00 00 f5 13 e5 af 80 09 9d c8   ................
0x7fe9eff83498  40 33 f8 ef e9 7f 00 00 00 00 00 00 e9 7f 00 00   @3..............
0x7fe9eff834a8  00 00 00 00 06 00 00 00 00 00 00 00 00 00 00 00   ................
0x7fe9eff834b8  24 09 d7 8d a5 76 d2 81 e5 8f 32 49 98 4c 98 6e   $....v....2I.L.n
0x7fe9eff834c8  89 00 00 00 00 00 00 00 88 08 00 00 00 00 00 00   ................
0x7fe9eff834d8  53 00 00 00 00 00 00 00 f5 13 e5 af 80 09 9d c8   S...............
0x7fe9eff834e8  f6 f0 f5 ce 00 e9 ae c3 0c 00 00 00 50 4f c4 db   ............PO..
0x7fe9eff834f8  00 35 f8 ef e9 7f 00 00 98 34 f8 ef e9 7f 00 00   .5.......4......
0x7fe9eff83508  98 36 f8 ef e9 7f 00 00 b8 32 f8 ef e9 7f 00 00   .6.......2......
0x7fe9eff83518  00 00 00 00 00 00 00 00 a0 52 f8 ef e9 7f 00 00   .........R......
0x7fe9eff83528  53 45 52 56 45 52 5f 41 44 44 52 00 00 00 00 00   SERVER_ADDR.....
0x7fe9eff83538  02 00 00 24 09 d7 8d a5 76 d2 81 0d e7 c9 65 e6   ...$....v.....e.
0x7fe9eff83548  e5 8f 32 49 98 4c 98 6e d8 00 00 00 00 00 00 00   ..2I.L.n........
Task: apache2 pid 3014 rule r1 addr 0x7fe9eff83720
0x7fe9eff83720  31 39 32 2e 31 36 38 2e 31 30 2e 32 30 30 00 24   192.168.10.200.$
0x7fe9eff83730  09 d7 8d a5 76 d2 81 00 e5 8f 32 49 98 4c 98 6e   ....v.....2I.L.n
0x7fe9eff83740  18 01 00 00 00 00 00 00 41 00 00 00 00 00 00 00   ........A.......
0x7fe9eff83750  20 00 00 00 00 00 00 00 f5 13 e5 af 80 09 9d c8   ................
0x7fe9eff83760  df 77 72 af 50 4f c4 db 77 dc 52 af 50 4f c4 db   .wr.PO..w.R.PO..
0x7fe9eff83770  00 00 00 00 06 00 00 00 00 00 00 00 00 00 00 00   ................
0x7fe9eff83780  24 09 d7 8d a5 76 d2 81 e5 8f 32 49 98 4c 98 6e   $....v....2I.L.n
0x7fe9eff83790  89 00 00 00 00 00 00 00 50 00 00 00 00 00 00 00   ........P.......
0x7fe9eff837a0  53 00 00 00 00 00 00 00 f5 13 e5 af 80 09 9d c8   S...............
0x7fe9eff837b0  4b 0a 8d 49 c8 7d fa c2 0c 00 00 00 50 4f c4 db   K..I.}......PO..
0x7fe9eff837c0  c8 37 f8 ef e9 7f 00 00 60 37 f8 ef e9 7f 00 00   .7......`7......
0x7fe9eff837d0  e0 39 f8 ef e9 7f 00 00 c0 35 f8 ef e9 7f 00 00   .9.......5......
0x7fe9eff837e0  00 00 00 00 00 00 00 00 00 00 00 00 00 00 00 00   ................
0x7fe9eff837f0  52 45 4d 4f 54 45 5f 41 44 44 52 00 f0 49 15 72   REMOTE_ADDR..I.r
0x7fe9eff83800  b5 c3 72 24 09 d7 8d a5 76 d2 81 38 dc 61 48 82   ..r$....v..8.aH.
0x7fe9eff83810  e5 8f 32 49 98 4c 98 6e 41 00 00 00 00 00 00 00   ..2I.L.nA.......
