Task: avahi-daemon pid 492 rule r1 addr 0x230dc98
0x0230dc98  31 39 32 2e 31 36 38 2e 31 30 2e 32 30 30 0a 00   192.168.10.200..
0x0230dca8  00 60 30 02 00 00 00 00 e6 d2 fe 5e 00 00 00 00   .`0........^....
0x0230dcb8  bb 07 06 00 00 00 00 00 e6 d2 fe 5e 00 00 00 00   ...........^....
0x0230dcc8  e8 09 06 00 00 00 00 00 b0 b2 b8 5a 33 7f 00 00   ...........Z3...
0x0230dcd8  70 b3 30 02 00 00 00 00 00 00 00 00 00 00 00 00   p.0.............
0x0230dce8  41 04 00 00 00 00 00 00 78 3b ed 59 33 7f 00 00   A.......x;.Y3...
0x0230dcf8  78 3b ed 59 33 7f 00 00 e0 dc 30 02 00 00 00 00   x;.Y3.....0.....
0x0230dd08  e0 dc 30 02 00 00 00 00 00 00 00 00 00 00 00 00   ..0.............
0x0230dd18  a0 57 30 02 00 00 00 00 00 00 00 00 00 00 00 00   .W0.............
0x0230dd28  c0 8f 30 02 00 00 00 00 50 00 00 00 00 00 00 00   ..0.....P.......
0x0230dd38  70 02 00 00 00 00 00 00 00 00 00 00 33 7f 00 00   p...........3...
0x0230dd48  10 ef 30 02 00 00 00 00 10 ef 30 02 00 00 00 00   ..0.......0.....
0x0230dd58  10 ef 30 02 00 00 00 00 10 ef 30 02 00 00 00 00   ..0.......0.....
0x0230dd68  73 ef 30 02 00 00 00 00 10 0f 31 02 00 00 00 00   s.0.......1.....
0x0230dd78  00 00 00 00 00 00 00 00 10 0f 31 02 00 00 00 00   ..........1.....
0x0230dd88  00 00 00 00 00 00 00 00 00 00 00 00 00 00 00 00   ................
Task: nmbd pid 972 rule r1 addr 0x7f5ddde936f8
0x7f5ddde936f8  31 39 32 2e 31 36 38 2e 31 30 2e 32 00 00 00 00   192.168.10.2....
0x7f5ddde93708  00 00 00 00 00 00 00 00 00 00 00 00 00 00 00 00   ................
0x7f5ddde93718  00 00 00 00 00 00 00 00 00 00 00 00 00 00 00 00   ................
0x7f5ddde93728  00 00 00 00 00 00 00 00 00 00 00 00 00 00 00 00   ................
0x7f5ddde93738  00 00 00 00 00 00 00 00 40 37 e9 dd 5d 7f 00 00   ........@7..]...
0x7f5ddde93748  50 40 e9 dd 5d 7f 00 00 40 37 e9 dd 5d 7f 00 00   P@..]...@7..]...
0x7f5ddde93758  00 00 00 00 00 00 00 00 00 00 00 00 00 00 00 00   ................
0x7f5ddde93768  00 ce 85 07 00 bc 45 74 36 95 6d 20 85 7d 2d 27   ......Et6.m..}-'
0x7f5ddde93778  00 00 00 00 00 00 00 00 00 00 00 00 00 00 00 00   ................
0x7f5ddde93788  00 00 00 00 00 00 00 00 00 00 00 00 00 00 00 00   ................
0x7f5ddde93798  00 00 00 00 00 00 00 00 00 00 00 00 00 00 00 00   ................
0x7f5ddde937a8  00 00 00 00 00 00 00 00 00 00 00 00 00 00 00 00   ................
0x7f5ddde937b8  00 00 00 00 00 00 00 00 00 00 00 00 00 00 00 00   ................
0x7f5ddde937c8  00 00 00 00 00 00 00 00 00 00 00 00 00 00 00 00   ................
0x7f5ddde937d8  00 00 00 00 00 00 00 00 00 00 00 00 00 00 00 00   ................
0x7f5ddde937e8  00 00 00 00 00 00 00 00 00 00 00 00 00 00 00 00   ................
Task: nmbd pid 972 rule r1 addr 0x7f5dde81d10e
0x7f5dde81d10e  31 39 32 2e 31 36 38 2e 31 30 2e 32 0a 00 00 00   192.168.10.2....
0x7f5dde81d11e  00 00 00 00 00 00 00 00 00 00 00 00 00 00 00 00   ................
0x7f5dde81d12e  00 00 00 00 00 00 00 00 00 00 00 00 00 00 00 00   ................
0x7f5dde81d13e  00 00 00 00 00 00 00 00 00 00 00 00 00 00 00 00   ................
0x7f5dde81d14e  00 00 00 00 00 00 00 00 00 00 00 00 00 00 00 00   ................
0x7f5dde81d15e  00 00 00 00 00 00 00 00 00 00 00 00 00 00 00 00   ................
0x7f5dde81d16e  00 00 00 00 00 00 00 00 00 00 00 00 00 00 00 00   ................
0x7f5dde81d17e  00 00 00 00 00 00 00 00 00 00 00 00 00 00 00 00   ................
0x7f5dde81d18e  00 00 00 00 00 00 00 00 00 00 00 00 00 00 00 00   ................
0x7f5dde81d19e  00 00 00 00 00 00 00 00 00 00 00 00 00 00 00 00   ................
0x7f5dde81d1ae  00 00 00 00 00 00 00 00 00 00 00 00 00 00 00 00   ................
0x7f5dde81d1be  00 00 00 00 00 00 00 00 00 00 00 00 00 00 00 00   ................
0x7f5dde81d1ce  00 00 00 00 00 00 00 00 00 00 00 00 00 00 00 00   ................
0x7f5dde81d1de  00 00 00 00 00 00 00 00 00 00 00 00 00 00 00 00   ................
0x7f5dde81d1ee  00 00 00 00 00 00 00 00 00 00 00 00 00 00 00 00   ................
0x7f5dde81d1fe  00 00 00 00 00 00 00 00 00 00 00 00 00 00 00 00   ................
Task: nmbd pid 972 rule r1 addr 0x7f5dde822a10
0x7f5dde822a10  31 39 32 2e 31 36 38 2e 31 30 2e 32 00 7f 00 00   192.168.10.2....
0x7f5dde822a20  00 00 00 00 00 00 00 00 21 00 00 00 00 00 00 00   ........!.......
0x7f5dde822a30  c0 a8 0a 02 5d 7f 00 00 88 a7 a5 db 5d 7f 00 00   ....].......]...
0x7f5dde822a40  20 00 00 00 00 00 00 00 a1 00 00 00 00 00 00 00   ................
0x7f5dde822a50  10 ed 81 de 5d 7f 00 00 00 00 00 00 00 00 00 00   ....]...........
0x7f5dde822a60  00 eb 81 de 5d 7f 00 00 20 19 82 de 5d 7f 00 00   ....].......]...
0x7f5dde822a70  00 00 00 00 00 00 00 00 50 ac 06 de 5d 7f 00 00   ........P...]...
0x7f5dde822a80  70 19 82 de 5d 7f 00 00 40 00 00 00 00 00 00 00   p...]...@.......
0x7f5dde822a90  70 0c 15 e8 5d 7f 00 00 00 00 00 00 00 00 00 00   p...]...........
0x7f5dde822aa0  90 a2 06 de 5d 7f 00 00 00 00 00 00 00 00 00 00   ....]...........
0x7f5dde822ab0  00 00 00 00 00 00 00 00 00 00 00 00 00 00 00 00   ................
0x7f5dde822ac0  00 00 00 00 00 00 00 00 00 00 00 00 00 00 00 00   ................
0x7f5dde822ad0  00 00 00 00 00 00 00 00 00 00 00 00 00 00 00 00   ................
0x7f5dde822ae0  e0 21 82 de 5d 7f 00 00 b1 00 00 00 00 00 00 00   .!..]...........
0x7f5dde822af0  e0 14 82 de 5d 7f 00 00 d0 0c 82 de 5d 7f 00 00   ....].......]...
0x7f5dde822b00  80 20 82 de 5d 7f 00 00 55 4f 43 4f 4e 54 52 4f   ....]...UOCONTRO
Task: apache2 pid 1193 rule r1 addr 0x7fe9ee172448
0x7fe9ee172448  31 39 32 2e 31 36 38 2e 31 30 2e 32 30 30 00 00   192.168.10.200..
0x7fe9ee172458  00 00 00 00 00 00 00 00 00 00 00 00 00 00 00 00   ................
0x7fe9ee172468  47 45 54 20 2f 69 6e 64 65 78 2e 70 68 70 3f 6f   GET./index.php?o
0x7fe9ee172478  70 74 69 6f 6e 3d 63 6f 6d 5f 61 6a 61 78 26 66   ption=com_ajax&f
0x7fe9ee172488  6f 72 6d 61 74 3d 6a 73 6f 6e 20 48 54 54 50 2f   ormat=json.HTTP/
0x7fe9ee172498  31 2e 31 00 4e 2b 53 45 4c 45 43 54 20 31 2c 00   1.1.N+SELECT.1,.
0x7fe9ee1724a8  55 4f 43 6f 6e 74 72 6f 6c 2e 75 6f 63 6f 6e 74   UOControl.uocont
0x7fe9ee1724b8  72 6f 6c 2e 63 6f 6d 00 00 00 00 00 00 00 00 00   rol.com.........
0x7fe9ee1724c8  00 00 00 00 00 00 00 00 00 00 00 00 00 00 00 00   ................
0x7fe9ee1724d8  00 00 00 00 00 00 00 00 00 00 00 00 00 00 00 00   ................
0x7fe9ee1724e8  00 00 00 00 00 00 00 00 00 00 00 00 00 00 00 00   ................
0x7fe9ee1724f8  00 00 00 00 00 00 00 00 00 00 00 00 00 00 00 00   ................
0x7fe9ee172508  00 00 00 00 00 00 00 00 00 00 00 00 00 00 00 00   ................
0x7fe9ee172518  00 00 00 00 00 00 00 00 00 00 00 00 00 00 00 00   ................
0x7fe9ee172528  00 00 00 00 00 00 00 00 00 00 00 00 00 00 00 00   ................
0x7fe9ee172538  00 00 00 00 00 00 00 00 00 00 00 00 00 00 00 00   ................
Task: apache2 pid 1226 rule r1 addr 0x7fe9ee16c998
0x7fe9ee16c998  31 39 32 2e 31 36 38 2e 31 30 2e 32 00 00 00 00   192.168.10.2....
0x7fe9ee16c9a8  38 30 2e 31 30 33 2e 31 31 39 2e 35 38 00 00 00   80.103.119.58...
0x7fe9ee16c9b8  00 00 00 00 00 00 00 00 00 00 00 00 00 00 00 00   ................
0x7fe9ee16c9c8  10 96 32 ee e9 7f 00 00 00 00 00 00 00 00 00 00   ..2.............
0x7fe9ee16c9d8  38 ca 16 ee e9 7f 00 00 00 00 00 00 00 00 00 00   8...............
0x7fe9ee16c9e8  90 c2 16 ee e9 7f 00 00 00 9c 32 ee e9 7f 00 00   ..........2.....
0x7fe9ee16c9f8  00 00 00 00 00 00 00 00 60 ca 16 ee e9 7f 00 00   ........`.......
0x7fe9ee16ca08  00 00 00 00 00 00 00 00 90 c2 16 ee e9 7f 00 00   ................
0x7fe9ee16ca18  a0 c0 16 ee e9 7f 00 00 90 c2 16 ee e9 7f 00 00   ................
0x7fe9ee16ca28  c0 cb 16 ee e9 7f 00 00 f0 ca 16 ee e9 7f 00 00   ................
0x7fe9ee16ca38  b0 da 32 ee e9 7f 00 00 18 ca 16 ee e9 7f 00 00   ..2.............
0x7fe9ee16ca48  00 00 00 00 00 00 00 00 00 00 00 00 00 00 00 00   ................
0x7fe9ee16ca58  90 c2 16 ee e9 7f 00 00 50 e1 32 ee e9 7f 00 00   ........P.2.....
0x7fe9ee16ca68  18 ca 16 ee e9 7f 00 00 00 00 00 00 00 00 00 00   ................
0x7fe9ee16ca78  00 00 00 00 00 00 00 00 90 c2 16 ee e9 7f 00 00   ................
0x7fe9ee16ca88  84 1a fe 5c 85 a9 05 00 84 47 2f 5e 85 a9 05 00   ...\.....G/^....
Task: apache2 pid 1226 rule r1 addr 0x7fe9f01c51d0
0x7fe9f01c51d0  31 39 32 2e 31 36 38 2e 31 30 2e 32 00 05 25 9a   192.168.10.2..%.
0x7fe9f01c51e0  5e a2 d5 74 02 7f 00 00 8d 2e 04 ec 92 19 7a 16   ^..t..........z.
0x7fe9f01c51f0  51 00 00 00 00 00 00 00 b8 05 00 00 00 00 00 00   Q...............
0x7fe9f01c5200  20 00 00 00 00 00 00 00 ad 33 6a 56 7f d9 89 d4   .........3jV....
0x7fe9f01c5210  b8 50 1c f0 e9 7f 00 00 00 00 00 00 e9 7f 00 00   .P..............
0x7fe9f01c5220  00 00 00 00 06 00 00 00 00 00 00 00 00 00 00 00   ................
0x7fe9f01c5230  05 25 9a 5e a2 d5 74 02 8d 2e 04 ec 92 19 7a 16   .%.^..t.......z.
0x7fe9f01c5240  89 00 00 00 00 00 00 00 08 06 00 00 00 00 00 00   ................
0x7fe9f01c5250  53 00 00 00 00 00 00 00 ad 33 6a 56 7f d9 89 d4   S........3jV....
0x7fe9f01c5260  fc ae df cf 00 e9 ae c3 0c 00 00 00 50 4f c4 db   ............PO..
0x7fe9f01c5270  78 52 1c f0 e9 7f 00 00 10 52 1c f0 e9 7f 00 00   xR.......R......
0x7fe9f01c5280  90 54 1c f0 e9 7f 00 00 30 50 1c f0 e9 7f 00 00   .T......0P......
0x7fe9f01c5290  00 00 00 00 00 00 00 00 18 73 1c f0 e9 7f 00 00   .........s......
0x7fe9f01c52a0  53 45 52 56 45 52 5f 4e 41 4d 45 00 00 00 00 00   SERVER_NAME.....
0x7fe9f01c52b0  07 00 00 05 25 9a 5e a2 d5 74 02 e9 9b d7 3e a6   ....%.^..t....>.
0x7fe9f01c52c0  8d 2e 04 ec 92 19 7a 16 41 00 00 00 00 00 00 00   ......z.A.......
Task: apache2 pid 1226 rule r1 addr 0x7fe9f01c52e8
0x7fe9f01c52e8  31 39 32 2e 31 36 38 2e 31 30 2e 32 00 05 25 9a   192.168.10.2..%.
0x7fe9f01c52f8  5e a2 d5 74 02 7f 00 00 8d 2e 04 ec 92 19 7a 16   ^..t..........z.
0x7fe9f01c5308  18 01 00 00 00 00 00 00 41 00 00 00 00 00 00 00   ........A.......
0x7fe9f01c5318  20 00 00 00 00 00 00 00 ad 33 6a 56 7f d9 89 d4   .........3jV....
0x7fe9f01c5328  57 18 96 b0 50 4f c4 db 2f e3 28 af 50 4f c4 db   W...PO../.(.PO..
0x7fe9f01c5338  00 00 00 00 06 00 00 00 00 00 00 00 00 00 00 00   ................
0x7fe9f01c5348  05 25 9a 5e a2 d5 74 02 8d 2e 04 ec 92 19 7a 16   .%.^..t.......z.
0x7fe9f01c5358  89 00 00 00 00 00 00 00 50 00 00 00 00 00 00 00   ........P.......
0x7fe9f01c5368  53 00 00 00 00 00 00 00 ad 33 6a 56 7f d9 89 d4   S........3jV....
0x7fe9f01c5378  f6 f0 f5 ce 00 e9 ae c3 0c 00 00 00 50 4f c4 db   ............PO..
0x7fe9f01c5388  90 53 1c f0 e9 7f 00 00 28 53 1c f0 e9 7f 00 00   .S......(S......
0x7fe9f01c5398  68 55 1c f0 e9 7f 00 00 48 51 1c f0 e9 7f 00 00   hU......HQ......
0x7fe9f01c53a8  00 00 00 00 00 00 00 00 38 71 1c f0 e9 7f 00 00   ........8q......
0x7fe9f01c53b8  53 45 52 56 45 52 5f 41 44 44 52 00 00 00 00 00   SERVER_ADDR.....
0x7fe9f01c53c8  a5 14 58 05 25 9a 5e a2 d5 74 02 b0 50 4f c4 db   ..X.%.^..t..PO..
0x7fe9f01c53d8  8d 2e 04 ec 92 19 7a 16 41 00 00 00 00 00 00 00   ......z.A.......
Task: apache2 pid 1228 rule r1 addr 0x7fe9ee16c998
0x7fe9ee16c998  31 39 32 2e 31 36 38 2e 31 30 2e 32 00 00 00 00   192.168.10.2....
0x7fe9ee16c9a8  38 30 2e 31 30 33 2e 31 31 39 2e 35 38 00 00 00   80.103.119.58...
0x7fe9ee16c9b8  df 07 00 00 00 00 00 00 50 22 00 00 00 00 00 00   ........P"......
0x7fe9ee16c9c8  10 96 32 ee e9 7f 00 00 00 00 00 00 00 00 00 00   ..2.............
0x7fe9ee16c9d8  38 ca 16 ee e9 7f 00 00 00 00 00 00 00 00 00 00   8...............
0x7fe9ee16c9e8  90 c2 16 ee e9 7f 00 00 00 9c 32 ee e9 7f 00 00   ..........2.....
0x7fe9ee16c9f8  00 00 00 00 00 00 00 00 60 ca 16 ee e9 7f 00 00   ........`.......
0x7fe9ee16ca08  00 00 00 00 00 00 00 00 90 c2 16 ee e9 7f 00 00   ................
0x7fe9ee16ca18  a0 c0 16 ee e9 7f 00 00 90 c2 16 ee e9 7f 00 00   ................
0x7fe9ee16ca28  80 cb 16 ee e9 7f 00 00 f0 ca 16 ee e9 7f 00 00   ................
0x7fe9ee16ca38  b0 da 32 ee e9 7f 00 00 18 ca 16 ee e9 7f 00 00   ..2.............
0x7fe9ee16ca48  00 00 00 00 00 00 00 00 00 00 00 00 00 00 00 00   ................
0x7fe9ee16ca58  90 c2 16 ee e9 7f 00 00 50 e1 32 ee e9 7f 00 00   ........P.2.....
0x7fe9ee16ca68  18 ca 16 ee e9 7f 00 00 00 00 00 00 00 00 00 00   ................
0x7fe9ee16ca78  00 00 00 00 00 00 00 00 90 c2 16 ee e9 7f 00 00   ................
0x7fe9ee16ca88  00 00 00 00 00 00 00 00 00 00 00 00 00 00 00 00   ................
Task: apache2 pid 1228 rule r1 addr 0x7fe9ef6131f0
0x7fe9ef6131f0  31 39 32 2e 31 36 38 2e 31 30 2e 32 00 42 9f 41   192.168.10.2.B.A
0x7fe9ef613200  92 2e a0 af ff af ff 00 9f 59 07 dd 7f 3c 4d b1   .........Y...<M.
0x7fe9ef613210  39 00 00 00 00 00 00 00 41 00 00 00 00 00 00 00   9.......A.......
0x7fe9ef613220  07 00 00 00 00 00 00 00 5a 6f 61 08 9e b9 cb ab   ........Zoa.....
0x7fe9ef613230  55 50 44 41 54 45 00 42 9f 41 92 2e a0 af ff ff   UPDATE.B.A......
0x7fe9ef613240  9f 59 07 dd 7f 3c 4d b1 39 00 00 00 00 00 00 00   .Y...<M.9.......
0x7fe9ef613250  39 00 00 00 00 00 00 00 02 00 00 00 00 00 00 00   9...............
0x7fe9ef613260  5a 6f 61 08 9e b9 cb ab 2c 00 42 9f 41 92 2e a0   Zoa.....,.B.A...
0x7fe9ef613270  af ff ff af ff 4f c4 db 9f 59 07 dd 7f 3c 4d b1   .....O...Y...<M.
0x7fe9ef613280  69 00 00 00 00 00 00 00 39 00 00 00 00 00 00 00   i.......9.......
0x7fe9ef613290  33 00 00 00 00 00 00 00 5a 6f 61 08 9e b9 cb ab   3.......Zoa.....
0x7fe9ef6132a0  4d 6f 7a 69 6c 6c 61 2f 34 2e 30 20 28 63 6f 6d   Mozilla/4.0.(com
0x7fe9ef6132b0  70 61 74 69 62 6c 65 3b 20 4d 53 49 45 20 36 2e   patible;.MSIE.6.
0x7fe9ef6132c0  30 3b 20 57 69 6e 64 6f 77 73 20 4e 54 20 35 2e   0;.Windows.NT.5.
0x7fe9ef6132d0  31 29 00 42 9f 41 92 2e a0 af ff 92 2e a0 af ff   1).B.A..........
0x7fe9ef6132e0  9f 59 07 dd 7f 3c 4d b1 39 00 00 00 00 00 00 00   .Y...<M.9.......
Task: apache2 pid 1228 rule r1 addr 0x7fe9ef6154d0
0x7fe9ef6154d0  31 39 32 2e 31 36 38 2e 31 30 2e 32 00 42 9f 41   192.168.10.2.B.A
0x7fe9ef6154e0  92 2e a0 af ff 7f 00 00 9f 59 07 dd 7f 3c 4d b1   .........Y...<M.
0x7fe9ef6154f0  39 00 00 00 00 00 00 00 41 00 00 00 00 00 00 00   9.......A.......
0x7fe9ef615500  04 00 00 00 00 00 00 00 5a 6f 61 08 9e b9 cb ab   ........Zoa.....
0x7fe9ef615510  01 00 00 00 42 9f 41 92 2e a0 af ff 2e a0 af ff   ....B.A.........
0x7fe9ef615520  9f 59 07 dd 7f 3c 4d b1 39 00 00 00 00 00 00 00   .Y...<M.9.......
0x7fe9ef615530  39 00 00 00 00 00 00 00 03 00 00 00 00 00 00 00   9...............
0x7fe9ef615540  5a 6f 61 08 9e b9 cb ab 38 30 00 42 9f 41 92 2e   Zoa.....80.B.A..
0x7fe9ef615550  a0 af ff af ff a0 af ff 9f 59 07 dd 7f 3c 4d b1   .........Y...<M.
0x7fe9ef615560  39 00 00 00 00 00 00 00 39 00 00 00 00 00 00 00   9.......9.......
0x7fe9ef615570  06 00 00 00 00 00 00 00 5a 6f 61 08 9e b9 cb ab   ........Zoa.....
0x7fe9ef615580  34 31 37 31 31 00 42 9f 41 92 2e a0 af ff c4 db   41711.B.A.......
0x7fe9ef615590  9f 59 07 dd 7f 3c 4d b1 39 00 00 00 00 00 00 00   .Y...<M.9.......
0x7fe9ef6155a0  39 00 00 00 00 00 00 00 07 00 00 00 00 00 00 00   9...............
0x7fe9ef6155b0  5a 6f 61 08 9e b9 cb ab 70 72 65 66 69 78 00 42   Zoa.....prefix.B
0x7fe9ef6155c0  9f 41 92 2e a0 af ff db 9f 59 07 dd 7f 3c 4d b1   .A.......Y...<M.
Task: mysqld pid 1721 rule r1 addr 0x7fc6f0000e58
0x7fc6f0000e58  31 39 32 2e 31 36 38 2e 31 30 2e 32 2f 69 6e 64   192.168.10.2/ind
0x7fc6f0000e68  65 78 2e 70 68 70 2f 32 2d 75 6e 63 61 74 65 67   ex.php/2-uncateg
0x7fc6f0000e78  6f 72 69 73 65 64 2f 31 2d 71 75 69 65 6e 65 73   orised/1-quienes
0x7fc6f0000e88  2d 73 6f 6d 6f 73 22 3b 73 3a 36 3a 22 65 78 70   -somos";s:6:"exp
0x7fc6f0000e98  69 72 79 22 3b 69 3a 31 35 39 33 37 36 30 38 31   iry";i:159376081
0x7fc6f0000ea8  32 3b 7d 7d 73 3a 31 33 3a 22 73 65 73 73 69 6f   2;}}s:13:"sessio
0x7fc6f0000eb8  6e 2e 74 6f 6b 65 6e 22 3b 73 3a 33 32 3a 22 38   n.token";s:32:"8
0x7fc6f0000ec8  39 39 38 63 37 31 66 65 63 36 61 65 31 30 36 31   998c71fec6ae1061
0x7fc6f0000ed8  65 38 35 66 66 38 62 66 63 66 36 35 61 30 30 22   e85ff8bfcf65a00"
0x7fc6f0000ee8  3b 7d 00 30 00 1a 6e 35 33 6e 74 6c 6d 6d 66 68   ;}.0..n53ntlmmfh
0x7fc6f0000ef8  6b 37 74 36 36 74 76 65 39 37 6d 32 37 75 30 34   k7t66tve97m27u04
0x7fc6f0000f08  05 0a 31 35 39 33 37 36 34 31 37 32 07 04 80 00   ..1593764172....
0x7fc6f0000f18  00 00 15 4e 22 3b 7d 00 30 00 1a 6c 36 37 6a 6d   ...N";}.0..l67jm
0x7fc6f0000f28  e1 00 02 00 00 00 00 00 92 68 a5 20 00 00 00 00   .........h......
0x7fc6f0000f38  70 75 72 67 65 2e 63 00 4c 00 00 00 00 00 00 00   purge.c.L.......
0x7fc6f0000f48  30 07 04 80 00 00 00 1e 41 fc 00 21 0b 00 10 00   0.......A..!....
Task: mysqld pid 1721 rule r1 addr 0x7fc6f8000ea5
0x7fc6f8000ea5  31 39 32 2e 31 36 38 2e 31 30 2e 32 2f 69 6e 64   192.168.10.2/ind
0x7fc6f8000eb5  65 78 2e 70 68 70 2f 32 2d 75 6e 63 61 74 65 67   ex.php/2-uncateg
0x7fc6f8000ec5  6f 72 69 73 65 64 2f 31 2d 71 75 69 65 6e 65 73   orised/1-quienes
0x7fc6f8000ed5  2d 73 6f 6d 6f 73 22 3b 73 3a 36 3a 22 65 78 70   -somos";s:6:"exp
0x7fc6f8000ee5  69 72 79 22 3b 69 3a 31 35 39 33 37 36 30 38 31   iry";i:159376081
0x7fc6f8000ef5  32 3b 7d 7d 73 3a 31 33 3a 22 73 65 73 73 69 6f   2;}}s:13:"sessio
0x7fc6f8000f05  6e 2e 74 6f 6b 65 6e 22 3b 73 3a 33 32 3a 22 38   n.token";s:32:"8
0x7fc6f8000f15  39 39 38 63 37 31 66 65 63 36 61 65 31 30 36 31   998c71fec6ae1061
0x7fc6f8000f25  65 38 35 66 66 38 62 66 63 66 36 35 61 30 30 22   e85ff8bfcf65a00"
0x7fc6f8000f35  3b 7d 61 63 6b 65 6e 64 22 3a 22 22 2c 22 73 68   ;}ackend":"","sh
0x7fc6f8000f45  6f 77 5f 75 72 6c 73 5f 69 6d 61 67 65 73 5f 66   ow_urls_images_f
0x7fc6f8000f55  72 6f 6e 74 65 6e 64 22 3a 22 22 7d 35 7b 22 72   rontend":""}5{"r
0x7fc6f8000f65  6f 62 6f 74 73 22 3a 22 22 2c 22 61 75 74 68 6f   obots":"","autho
0x7fc6f8000f75  72 22 3a 22 22 2c 22 72 69 67 68 74 73 22 3a 22   r":"","rights":"
0x7fc6f8000f85  22 2c 22 78 72 65 66 65 72 65 6e 63 65 22 3a 22   ","xreference":"
0x7fc6f8000f95  22 7d 00 00 01 31 01 30 00 01 31 01 2a 01 30 01   "}...1.0..1.*.0.
Task: mysqld pid 1721 rule r1 addr 0x7fc6f8001128
0x7fc6f8001128  31 39 32 2e 31 36 38 2e 31 30 2e 32 2f 69 6e 64   192.168.10.2/ind
0x7fc6f8001138  65 78 2e 70 68 70 2f 32 2d 75 6e 63 61 74 65 67   ex.php/2-uncateg
0x7fc6f8001148  6f 72 69 73 65 64 2f 31 2d 71 75 69 65 6e 65 73   orised/1-quienes
0x7fc6f8001158  2d 73 6f 6d 6f 73 22 3b 73 3a 36 3a 22 65 78 70   -somos";s:6:"exp
0x7fc6f8001168  69 72 79 22 3b 69 3a 31 35 39 33 37 36 30 38 30   iry";i:159376080
0x7fc6f8001178  30 3b 7d 7d 73 3a 31 33 3a 22 73 65 73 73 69 6f   0;}}s:13:"sessio
0x7fc6f8001188  6e 2e 74 6f 6b 65 6e 22 3b 73 3a 33 32 3a 22 38   n.token";s:32:"8
0x7fc6f8001198  30 65 36 63 37 63 39 37 64 65 62 63 37 64 39 30   0e6c7c97debc7d90
0x7fc6f80011a8  35 35 63 37 35 35 34 32 38 39 63 61 33 35 36 22   55c7554289ca356"
0x7fc6f80011b8  3b 7d 7d 7d 73 3a 31 33 3a 22 73 65 73 73 69 6f   ;}}}s:13:"sessio
0x7fc6f80011c8  6e 2e 74 6f 6b 65 6e 22 3b 73 3a 33 32 3a 22 30   n.token";s:32:"0
0x7fc6f80011d8  31 32 33 33 38 38 66 39 33 38 36 64 62 61 39 38   123388f9386dba98
0x7fc6f80011e8  35 62 35 63 34 36 34 32 32 33 64 61 37 33 30 22   5b5c464223da730"
0x7fc6f80011f8  3b 7d 37 36 30 37 36 35 3b 7d 7d 7d 31 3a 22 30   ;}760765;}}}1:"0
0x7fc6f8001208  22 3b 73 3a 31 32 3a 22 72 65 71 75 69 72 65 52   ";s:12:"requireR
0x7fc6f8001218  65 73 65 74 22 3b 73 3a 31 3a 22 30 22 3b 73 3a   eset";s:1:"0";s:
Task: mysqld pid 1721 rule r1 addr 0x7fc6f80050f3
0x7fc6f80050f3  31 39 32 2e 31 36 38 2e 31 30 2e 32 2f 69 6e 64   192.168.10.2/ind
0x7fc6f8005103  65 78 2e 70 68 70 2f 32 2d 75 6e 63 61 74 65 67   ex.php/2-uncateg
0x7fc6f8005113  6f 72 69 73 65 64 2f 31 2d 71 75 69 65 6e 65 73   orised/1-quienes
0x7fc6f8005123  2d 73 6f 6d 6f 73 5c 22 3b 73 3a 36 3a 5c 22 65   -somos\";s:6:\"e
0x7fc6f8005133  78 70 69 72 79 5c 22 3b 69 3a 31 35 39 33 37 36   xpiry\";i:159376
0x7fc6f8005143  30 38 31 32 3b 7d 7d 73 3a 31 33 3a 5c 22 73 65   0812;}}s:13:\"se
0x7fc6f8005153  73 73 69 6f 6e 2e 74 6f 6b 65 6e 5c 22 3b 73 3a   ssion.token\";s:
0x7fc6f8005163  33 32 3a 5c 22 38 39 39 38 63 37 31 66 65 63 36   32:\"8998c71fec6
0x7fc6f8005173  61 65 31 30 36 31 65 38 35 66 66 38 62 66 63 66   ae1061e85ff8bfcf
0x7fc6f8005183  36 35 61 30 30 5c 22 3b 7d 27 0a 09 2c 20 60 74   65a00\";}'..,.`t
0x7fc6f8005193  69 6d 65 60 20 3d 20 27 31 35 39 33 37 36 35 30   ime`.=.'15937650
0x7fc6f80051a3  31 32 27 0a 57 48 45 52 45 20 60 73 65 73 73 69   12'.WHERE.`sessi
0x7fc6f80051b3  6f 6e 5f 69 64 60 20 3d 20 27 6e 35 33 6e 74 6c   on_id`.=.'n53ntl
0x7fc6f80051c3  6d 6d 66 68 6b 37 74 36 36 74 76 65 39 37 6d 32   mmfhk7t66tve97m2
0x7fc6f80051d3  37 75 30 34 27 00 06 00 00 00 00 00 00 00 00 00   7u04'...........
0x7fc6f80051e3  00 00 00 00 00 00 00 00 00 00 00 00 00 00 00 00   ................
Task: mysqld pid 1721 rule r1 addr 0x7fc6f80057d3
0x7fc6f80057d3  31 39 32 2e 31 36 38 2e 31 30 2e 32 2f 69 6e 64   192.168.10.2/ind
0x7fc6f80057e3  65 78 2e 70 68 70 2f 32 2d 75 6e 63 61 74 65 67   ex.php/2-uncateg
0x7fc6f80057f3  6f 72 69 73 65 64 2f 31 2d 71 75 69 65 6e 65 73   orised/1-quienes
0x7fc6f8005803  2d 73 6f 6d 6f 73 5c 22 3b 73 3a 36 3a 5c 22 65   -somos\";s:6:\"e
0x7fc6f8005813  78 70 69 72 79 5c 22 3b 69 3a 31 35 39 33 37 36   xpiry\";i:159376
0x7fc6f8005823  30 38 31 32 3b 7d 7d 73 3a 31 33 3a 5c 22 73 65   0812;}}s:13:\"se
0x7fc6f8005833  73 73 69 6f 6e 2e 74 6f 6b 65 6e 5c 22 3b 73 3a   ssion.token\";s:
0x7fc6f8005843  33 32 3a 5c 22 38 39 39 38 63 37 31 66 65 63 36   32:\"8998c71fec6
0x7fc6f8005853  61 65 31 30 36 31 65 38 35 66 66 38 62 66 63 66   ae1061e85ff8bfcf
0x7fc6f8005863  36 35 61 30 30 5c 22 3b 7d 27 0a 09 2c 20 60 74   65a00\";}'..,.`t
0x7fc6f8005873  69 6d 65 60 20 3d 20 27 31 35 39 33 37 36 35 30   ime`.=.'15937650
0x7fc6f8005883  31 32 27 0a 57 48 45 52 45 20 60 73 65 73 73 69   12'.WHERE.`sessi
0x7fc6f8005893  6f 6e 5f 69 64 60 20 3d 20 27 6e 35 33 6e 74 6c   on_id`.=.'n53ntl
0x7fc6f80058a3  6d 6d 66 68 6b 37 74 36 36 74 76 65 39 37 6d 32   mmfhk7t66tve97m2
0x7fc6f80058b3  37 75 30 34 27 00 00 00 00 00 00 00 00 e0 0a b5   7u04'...........
0x7fc6f80058c3  21 c7 7f 00 00 08 a6 d7 22 c7 7f 00 00 6a 6f 6f   !......."....joo
Task: mysqld pid 1721 rule r1 addr 0x7fc6f800642a
0x7fc6f800642a  31 39 32 2e 31 36 38 2e 31 30 2e 32 2f 69 6e 64   192.168.10.2/ind
0x7fc6f800643a  65 78 2e 70 68 70 2f 32 2d 75 6e 63 61 74 65 67   ex.php/2-uncateg
0x7fc6f800644a  6f 72 69 73 65 64 2f 31 2d 71 75 69 65 6e 65 73   orised/1-quienes
0x7fc6f800645a  2d 73 6f 6d 6f 73 22 3b 73 3a 36 3a 22 65 78 70   -somos";s:6:"exp
0x7fc6f800646a  69 72 79 22 3b 69 3a 31 35 39 33 37 36 30 38 31   iry";i:159376081
0x7fc6f800647a  32 3b 7d 7d 73 3a 31 33 3a 22 73 65 73 73 69 6f   2;}}s:13:"sessio
0x7fc6f800648a  6e 2e 74 6f 6b 65 6e 22 3b 73 3a 33 32 3a 22 38   n.token";s:32:"8
0x7fc6f800649a  39 39 38 63 37 31 66 65 63 36 61 65 31 30 36 31   998c71fec6ae1061
0x7fc6f80064aa  65 38 35 66 66 38 62 66 63 66 36 35 61 30 30 22   e85ff8bfcf65a00"
0x7fc6f80064ba  3b 7d 00 7f 00 00 e0 0a b5 21 c7 7f 00 00 c0 64   ;}.......!.....d
0x7fc6f80064ca  00 f8 c6 7f 00 00 00 00 00 00 6f 6e 6e 65 00 00   ..........onne..
0x7fc6f80064da  00 00 6e 22 3b 69 00 00 00 00 00 00 00 00 00 00   ..n";i..........
0x7fc6f80064ea  00 00 00 00 00 00 00 00 00 00 00 00 00 00 00 00   ................
0x7fc6f80064fa  00 00 00 00 00 00 6f 6f 6d 6c 61 5c 52 65 00 00   ......oomla\Re..
0x7fc6f800650a  00 00 00 00 00 00 28 a7 d7 22 c7 7f 00 00 00 00   ......(.."......
0x7fc6f800651a  00 00 00 00 00 00 00 00 00 00 00 00 00 00 00 00   ................
Task: mysqld pid 1721 rule r1 addr 0x7fc6f83582a8
0x7fc6f83582a8  31 39 32 2e 31 36 38 2e 31 30 2e 32 2f 69 6e 64   192.168.10.2/ind
0x7fc6f83582b8  65 78 2e 70 68 70 2f 32 2d 75 6e 63 61 74 65 67   ex.php/2-uncateg
0x7fc6f83582c8  6f 72 69 73 65 64 2f 31 2d 71 75 69 65 6e 65 73   orised/1-quienes
0x7fc6f83582d8  2d 73 6f 6d 6f 73 22 3b 73 3a 36 3a 22 65 78 70   -somos";s:6:"exp
0x7fc6f83582e8  69 72 79 22 3b 69 3a 31 35 39 33 37 36 30 38 31   iry";i:159376081
0x7fc6f83582f8  32 3b 7d 7d 73 3a 31 33 3a 22 73 65 73 73 69 6f   2;}}s:13:"sessio
0x7fc6f8358308  6e 2e 74 6f 6b 65 6e 22 3b 73 3a 33 32 3a 22 38   n.token";s:32:"8
0x7fc6f8358318  39 39 38 63 37 31 66 65 63 36 61 65 31 30 36 31   998c71fec6ae1061
0x7fc6f8358328  65 38 35 66 66 38 62 66 63 66 36 35 61 30 30 22   e85ff8bfcf65a00"
0x7fc6f8358338  3b 7d 80 00 00 00 75 6c 74 7c 61 3a 39 3a 7b 73   ;}....ult|a:9:{s
0x7fc6f8358348  b1 09 00 00 00 00 00 00 c8 05 00 f8 c6 7f 00 00   ................
0x7fc6f8358358  c8 05 00 f8 c6 7f 00 00 40 83 35 f8 c6 7f 00 00   ........@.5.....
0x7fc6f8358368  40 83 35 f8 c6 7f 00 00 74 69 6d 65 72 2e 73 74   @.5.....timer.st
0x7fc6f8358378  61 72 74 22 3b 69 3a 31 40 63 1e f8 c6 7f 00 00   art";i:1@c......
0x7fc6f8358388  00 00 00 00 00 00 00 00 d8 05 00 00 00 00 00 00   ................
0x7fc6f8358398  74 69 6d 65 72 2e 6c 61 00 00 00 00 00 00 00 00   timer.la........
Task: mysqld pid 1721 rule r1 addr 0x7fc6f83586f2
0x7fc6f83586f2  31 39 32 2e 31 36 38 2e 31 30 2e 32 2f 69 6e 64   192.168.10.2/ind
0x7fc6f8358702  65 78 2e 70 68 70 2f 32 2d 75 6e 63 61 74 65 67   ex.php/2-uncateg
0x7fc6f8358712  6f 72 69 73 65 64 2f 31 2d 71 75 69 65 6e 65 73   orised/1-quienes
0x7fc6f8358722  2d 73 6f 6d 6f 73 22 3b 73 3a 36 3a 22 65 78 70   -somos";s:6:"exp
0x7fc6f8358732  69 72 79 22 3b 69 3a 31 35 39 33 37 36 30 38 31   iry";i:159376081
0x7fc6f8358742  32 3b 7d 7d 73 3a 31 33 3a 22 73 65 73 73 69 6f   2;}}s:13:"sessio
0x7fc6f8358752  6e 2e 74 6f 6b 65 6e 22 3b 73 3a 33 32 3a 22 38   n.token";s:32:"8
0x7fc6f8358762  39 39 38 63 37 31 66 65 63 36 61 65 31 30 36 31   998c71fec6ae1061
0x7fc6f8358772  65 38 35 66 66 38 62 66 63 66 36 35 61 30 30 22   e85ff8bfcf65a00"
0x7fc6f8358782  3b 7d 31 33 3a 22 73 65 73 73 69 6f 6e 2e 74 6f   ;}13:"session.to
0x7fc6f8358792  6b 65 6e 22 3b 73 3a 33 32 3a 22 38 39 39 38 63   ken";s:32:"8998c
0x7fc6f83587a2  37 31 66 65 63 36 61 65 31 30 36 31 65 38 35 66   71fec6ae1061e85f
0x7fc6f83587b2  66 38 62 66 63 66 36 35 61 30 30 22 3b 7d 00 30   f8bfcf65a00";}.0
0x7fc6f83587c2  00 1a 6e 35 33 6e 74 6c 6d 6d 66 68 6b 37 74 36   ..n53ntlmmfhk7t6
0x7fc6f83587d2  36 74 76 65 39 37 6d 32 37 75 30 34 05 0a 31 35   6tve97m27u04..15
0x7fc6f83587e2  39 33 37 36 34 31 37 32 07 04 80 00 00 00 4f 3a   93764172......O:
Task: mysqld pid 1721 rule r1 addr 0x7fc6f835881a
0x7fc6f835881a  31 39 32 2e 31 36 38 2e 31 30 2e 32 2f 69 c8 83   192.168.10.2/i..
0x7fc6f835882a  35 f8 c6 7f 00 00 c8 ea 35 f8 c6 7f 00 00 65 67   5.......5.....eg
0x7fc6f835883a  6f 72 69 73 65 64 2f 31 2d 71 75 69 65 6e 65 73   orised/1-quienes
0x7fc6f835884a  2d 73 6f 6d 6f 73 22 3b 73 3a 36 3a 22 65 78 70   -somos";s:6:"exp
0x7fc6f835885a  69 72 79 22 3b 69 3a 31 35 39 33 37 36 30 38 31   iry";i:159376081
0x7fc6f835886a  32 3b 7d 7d 73 3a 31 33 3a 22 73 65 73 73 69 6f   2;}}s:13:"sessio
0x7fc6f835887a  6e 2e 74 6f 6b 65 6e 22 3b 73 3a 33 32 3a 22 38   n.token";s:32:"8
0x7fc6f835888a  39 39 38 63 37 31 66 65 63 36 61 65 31 30 36 31   998c71fec6ae1061
0x7fc6f835889a  65 38 35 66 66 38 62 66 63 66 36 35 61 30 30 22   e85ff8bfcf65a00"
0x7fc6f83588aa  3b 7d 00 00 00 00 00 00 00 00 00 00 00 00 00 00   ;}..............
0x7fc6f83588ba  00 00 00 00 00 00 00 00 00 00 00 00 00 00 00 00   ................
0x7fc6f83588ca  00 00 00 00 00 00 00 00 00 00 00 00 00 00 00 00   ................
0x7fc6f83588da  00 00 00 00 00 00 00 00 00 00 00 00 00 00 00 00   ................
0x7fc6f83588ea  00 00 00 00 00 00 00 00 00 00 00 00 00 00 00 00   ................
0x7fc6f83588fa  00 00 00 00 00 00 00 00 00 00 00 00 00 00 00 00   ................
0x7fc6f835890a  00 00 00 00 00 00 00 00 00 00 00 00 00 00 00 00   ................
Task: mysqld pid 1721 rule r1 addr 0x7fc6f835a24a
0x7fc6f835a24a  31 39 32 2e 31 36 38 2e 31 30 2e 32 2f 69 6e 64   192.168.10.2/ind
0x7fc6f835a25a  65 78 2e 70 68 70 2f 32 2d 75 6e 63 61 74 65 67   ex.php/2-uncateg
0x7fc6f835a26a  6f 72 69 73 65 64 2f 31 2d 71 75 69 65 6e 65 73   orised/1-quienes
0x7fc6f835a27a  2d 73 6f 6d 6f 73 22 3b 73 3a 36 3a 22 65 78 70   -somos";s:6:"exp
0x7fc6f835a28a  69 72 79 22 3b 69 3a 31 35 39 33 37 36 30 38 31   iry";i:159376081
0x7fc6f835a29a  32 3b 7d 7d 73 3a 31 33 3a 22 73 65 73 73 69 6f   2;}}s:13:"sessio
0x7fc6f835a2aa  6e 2e 74 6f 6b 65 6e 22 3b 73 3a 33 32 3a 22 38   n.token";s:32:"8
0x7fc6f835a2ba  39 39 38 63 37 31 66 65 63 36 61 65 31 30 36 31   998c71fec6ae1061
0x7fc6f835a2ca  65 38 35 66 66 38 62 66 63 66 36 35 61 30 30 22   e85ff8bfcf65a00"
0x7fc6f835a2da  3b 7d 00 00 00 00 00 00 00 00 00 00 00 00 00 00   ;}..............
0x7fc6f835a2ea  00 00 00 00 00 00 00 00 00 00 00 00 00 00 00 00   ................
0x7fc6f835a2fa  00 00 00 00 00 00 00 00 00 00 00 00 00 00 00 00   ................
0x7fc6f835a30a  00 00 00 00 00 00 00 00 00 00 00 00 00 00 00 00   ................
0x7fc6f835a31a  00 00 00 00 00 00 00 00 00 00 00 00 00 00 00 00   ................
0x7fc6f835a32a  00 00 00 00 00 00 00 00 00 00 00 00 00 00 00 00   ................
0x7fc6f835a33a  00 00 00 00 00 00 00 00 00 00 00 00 00 00 00 00   ................
Task: mysqld pid 1721 rule r1 addr 0x7fc7000140f4
0x7fc7000140f4  31 39 32 2e 31 36 38 2e 31 30 2e 32 2f 69 6e 64   192.168.10.2/ind
0x7fc700014104  65 78 2e 70 68 70 2f 32 2d 75 6e 63 61 74 65 67   ex.php/2-uncateg
0x7fc700014114  6f 72 69 73 65 64 2f 31 2d 71 75 69 65 6e 65 73   orised/1-quienes
0x7fc700014124  2d 73 6f 6d 6f 73 22 3b 73 3a 36 3a 22 65 78 70   -somos";s:6:"exp
0x7fc700014134  69 72 79 22 3b 69 3a 31 35 39 33 37 36 30 38 30   iry";i:159376080
0x7fc700014144  39 3b 7d 7d 73 3a 31 33 3a 22 73 65 73 73 69 6f   9;}}s:13:"sessio
0x7fc700014154  6e 2e 74 6f 6b 65 6e 22 3b 73 3a 33 32 3a 22 38   n.token";s:32:"8
0x7fc700014164  30 65 36 63 37 63 39 37 64 65 62 63 37 64 39 30   0e6c7c97debc7d90
0x7fc700014174  35 35 63 37 35 35 34 32 38 39 63 61 33 35 36 22   55c7554289ca356"
0x7fc700014184  3b 7d 64 61 37 33 30 22 3b 7d 37 36 30 35 39 32   ;}da730";}760592
0x7fc700014194  3b 7d 7d 7d 3a 30 30 3a 30 30 22 3b 73 3a 31 30   ;}}}:00:00";s:10
0x7fc7000141a4  3a 22 72 65 73 65 74 43 6f 75 6e 74 22 3b 73 3a   :"resetCount";s:
0x7fc7000141b4  31 3a 22 30 22 3b 73 3a 31 32 3a 22 72 65 71 75   1:"0";s:12:"requ
0x7fc7000141c4  69 72 65 52 65 73 65 74 22 3b 73 3a 31 3a 22 30   ireReset";s:1:"0
0x7fc7000141d4  22 3b 73 3a 31 30 3a 22 5c 30 5c 30 5c 30 5f 70   ";s:10:"\0\0\0_p
0x7fc7000141e4  61 72 61 6d 73 22 3b 4f 3a 32 34 3a 22 4a 6f 6f   arams";O:24:"Joo
Task: mysqld pid 1721 rule r1 addr 0x7fc700148552
0x7fc700148552  31 39 32 2e 31 36 38 2e 31 30 2e 32 2f 69 6e 64   192.168.10.2/ind
0x7fc700148562  65 78 2e 70 68 70 2f 32 2d 75 6e 63 61 74 65 67   ex.php/2-uncateg
0x7fc700148572  6f 72 69 73 65 64 2f 31 2d 71 75 69 65 6e 65 73   orised/1-quienes
0x7fc700148582  2d 73 6f 6d 6f 73 22 3b 73 3a 36 3a 22 65 78 70   -somos";s:6:"exp
0x7fc700148592  69 72 79 22 3b 69 3a 31 35 39 33 37 36 30 38 31   iry";i:159376081
0x7fc7001485a2  32 3b 7d 7d 73 3a 31 33 3a 22 73 65 73 73 69 6f   2;}}s:13:"sessio
0x7fc7001485b2  6e 2e 74 6f 6b 65 6e 22 3b 73 3a 33 32 3a 22 38   n.token";s:32:"8
0x7fc7001485c2  39 39 38 63 37 31 66 65 63 36 61 65 31 30 36 31   998c71fec6ae1061
0x7fc7001485d2  65 38 35 66 66 38 62 66 63 66 36 35 61 30 30 22   e85ff8bfcf65a00"
0x7fc7001485e2  3b 7d 73 69 6f 6e 2e 74 6f 6b 65 6e 22 3b 73 3a   ;}sion.token";s:
0x7fc7001485f2  33 32 3a 22 63 65 66 30 36 33 35 31 34 36 39 32   32:"cef063514692
0x7fc700148602  31 37 62 32 37 33 32 38 62 35 36 65 63 66 62 61   17b27328b56ecfba
0x7fc700148612  35 66 38 34 22 3b 7d 69 22 3b 73 3a 31 32 3a 22   5f84";}i";s:12:"
0x7fc700148622  5c 30 5c 30 5c 30 6e 61 6d 65 51 75 6f 74 65 22   \0\0\0nameQuote"
0x7fc700148632  3b 73 3a 31 3a 22 60 22 3b 73 3a 31 31 3a 22 5c   ;s:1:"`";s:11:"\
0x7fc700148642  30 5c 30 5c 30 6e 75 6c 6c 44 61 74 65 22 3b 73   0\0\0nullDate";s
Task: mysqld pid 1721 rule r1 addr 0x7fc70a6d902e
0x7fc70a6d902e  31 39 32 2e 31 36 38 2e 31 30 2e 32 2f 69 6e 64   192.168.10.2/ind
0x7fc70a6d903e  65 78 2e 70 68 70 2f 32 2d 75 6e 63 61 74 65 67   ex.php/2-uncateg
0x7fc70a6d904e  6f 72 69 73 65 64 2f 31 2d 71 75 69 65 6e 65 73   orised/1-quienes
0x7fc70a6d905e  2d 73 6f 6d 6f 73 22 3b 73 3a 36 3a 22 65 78 70   -somos";s:6:"exp
0x7fc70a6d906e  69 72 79 22 3b 69 3a 31 35 39 33 37 36 30 38 31   iry";i:159376081
0x7fc70a6d907e  32 3b 7d 7d 73 3a 31 33 3a 22 73 65 73 73 69 6f   2;}}s:13:"sessio
0x7fc70a6d908e  6e 2e 74 6f 6b 65 6e 22 3b 73 3a 33 32 3a 22 38   n.token";s:32:"8
0x7fc70a6d909e  39 39 38 63 37 31 66 65 63 36 61 65 31 30 36 31   998c71fec6ae1061
0x7fc70a6d90ae  65 38 35 66 66 38 62 66 63 66 36 35 61 30 30 22   e85ff8bfcf65a00"
0x7fc70a6d90be  3b 7d 80 00 00 00 00 61 85 0a 1a 00 05 00 28 29   ;}.....a......()
0x7fc70a6d90ce  39 6e 37 37 74 61 6b 68 6c 35 6b 6d 76 6f 64 38   9n77takhl5kmvod8
0x7fc70a6d90de  71 37 64 68 67 38 67 39 61 62 35 00 00 00 00 0f   q7dhg8g9ab5.....
0x7fc70a6d90ee  6d 56 00 00 02 c1 02 d8 00 01 31 35 39 33 37 36   mV........159376
0x7fc70a6d90fe  33 35 38 37 5f 5f 64 65 66 61 75 6c 74 7c 61 3a   3587__default|a:
0x7fc70a6d910e  39 3a 7b 73 3a 31 35 3a 22 73 65 73 73 69 6f 6e   9:{s:15:"session
0x7fc70a6d911e  2e 63 6f 75 6e 74 65 72 22 3b 69 3a 31 3b 73 3a   .counter";i:1;s:
Task: mysqld pid 1721 rule r1 addr 0x7fc70a778e7c
0x7fc70a778e7c  31 39 32 2e 31 36 38 2e 31 30 2e 32 2f 22 3b 73   192.168.10.2/";s
0x7fc70a778e8c  3a 34 3a 22 64 61 74 61 22 3b 61 3a 30 3a 7b 7d   :4:"data";a:0:{}
0x7fc70a778e9c  7d 7d 7d 7d 73 3a 39 3a 22 73 65 70 61 72 61 74   }}}}s:9:"separat
0x7fc70a778eac  6f 72 22 3b 73 3a 31 3a 22 2e 22 3b 7d 73 3a 34   or";s:1:".";}s:4
0x7fc70a778ebc  3a 22 75 73 65 72 22 3b 4f 3a 35 3a 22 4a 55 73   :"user";O:5:"JUs
0x7fc70a778ecc  65 72 22 3a 32 38 3a 7b 73 3a 39 3a 22 5c 30 5c   er":28:{s:9:"\0\
0x7fc70a778edc  30 5c 30 69 73 52 6f 6f 74 22 3b 62 3a 30 3b 73   0\0isRoot";b:0;s
0x7fc70a778eec  3a 32 3a 22 69 64 22 3b 73 3a 32 3a 22 36 30 22   :2:"id";s:2:"60"
0x7fc70a778efc  3b 73 3a 34 3a 22 6e 61 6d 65 22 3b 73 3a 32 32   ;s:4:"name";s:22
0x7fc70a778f0c  3a 22 44 65 70 61 72 74 61 6d 65 6e 74 6f 20 43   :"Departamento.C
0x7fc70a778f1c  6f 6d 65 72 63 69 61 6c 22 3b 73 3a 38 3a 22 75   omercial";s:8:"u
0x7fc70a778f2c  73 65 72 6e 61 6d 65 22 3b 73 3a 39 3a 22 63 6f   sername";s:9:"co
0x7fc70a778f3c  6d 65 72 63 69 61 6c 22 3b 73 3a 35 3a 22 65 6d   mercial";s:5:"em
0x7fc70a778f4c  61 69 6c 22 3b 73 3a 32 33 3a 22 63 6f 6d 65 72   ail";s:23:"comer
0x7fc70a778f5c  63 69 61 6c 40 75 6f 63 6f 6e 74 72 6f 6c 2e 63   cial@uocontrol.c
0x7fc70a778f6c  6f 6d 22 3b 73 3a 38 3a 22 70 61 73 73 77 6f 72   om";s:8:"passwor
Task: mysqld pid 1721 rule r1 addr 0x7fc70a779408
0x7fc70a779408  31 39 32 2e 31 36 38 2e 31 30 2e 32 2f 69 6e 64   192.168.10.2/ind
0x7fc70a779418  65 78 2e 70 68 70 2f 32 2d 75 6e 63 61 74 65 67   ex.php/2-uncateg
0x7fc70a779428  6f 72 69 73 65 64 2f 31 2d 71 75 69 65 6e 65 73   orised/1-quienes
0x7fc70a779438  2d 73 6f 6d 6f 73 22 3b 73 3a 36 3a 22 65 78 70   -somos";s:6:"exp
0x7fc70a779448  69 72 79 22 3b 69 3a 31 35 39 33 37 36 30 38 30   iry";i:159376080
0x7fc70a779458  30 3b 7d 7d 73 3a 31 33 3a 22 73 65 73 73 69 6f   0;}}s:13:"sessio
0x7fc70a779468  6e 2e 74 6f 6b 65 6e 22 3b 73 3a 33 32 3a 22 38   n.token";s:32:"8
0x7fc70a779478  30 65 36 63 37 63 39 37 64 65 62 63 37 64 39 30   0e6c7c97debc7d90
0x7fc70a779488  35 35 63 37 35 35 34 32 38 39 63 61 33 35 36 22   55c7554289ca356"
0x7fc70a779498  3b 7d 0c 71 00 00 00 00 00 00 12 73 00 00 00 00   ;}.q.......s....
0x7fc70a7794a8  00 00 12 74 00 00 15 56 00 00 00 00 00 00 00 00   ...t...V........
0x7fc70a7794b8  00 00 15 8d 0b b7 00 00 02 c3 15 af 00 00 02 c3   ................
0x7fc70a7794c8  0b d9 00 00 00 00 00 00 00 00 00 00 00 00 00 00   ................
0x7fc70a7794d8  00 00 00 00 00 00 00 00 00 00 00 00 00 00 00 00   ................
0x7fc70a7794e8  00 00 00 00 00 00 00 00 00 00 00 00 00 00 00 00   ................
0x7fc70a7794f8  00 00 00 00 00 00 00 00 00 00 00 00 00 00 00 00   ................
Task: mysqld pid 1721 rule r1 addr 0x7fc70f522aaa
0x7fc70f522aaa  31 39 32 2e 31 36 38 2e 31 30 2e 32 2f 69 6e 64   192.168.10.2/ind
0x7fc70f522aba  65 78 2e 70 68 70 2f 32 2d 75 6e 63 61 74 65 67   ex.php/2-uncateg
0x7fc70f522aca  6f 72 69 73 65 64 2f 31 2d 71 75 69 65 6e 65 73   orised/1-quienes
0x7fc70f522ada  2d 73 6f 6d 6f 73 22 3b 73 3a 36 3a 22 65 78 70   -somos";s:6:"exp
0x7fc70f522aea  69 72 79 22 3b 69 3a 31 35 39 33 37 36 30 38 31   iry";i:159376081
0x7fc70f522afa  32 3b 7d 7d 73 3a 31 33 3a 22 73 65 73 73 69 6f   2;}}s:13:"sessio
0x7fc70f522b0a  6e 2e 74 6f 6b 65 6e 22 3b 73 3a 33 32 3a 22 38   n.token";s:32:"8
0x7fc70f522b1a  39 39 38 63 37 31 66 65 63 36 61 65 31 30 36 31   998c71fec6ae1061
0x7fc70f522b2a  65 38 35 66 66 38 62 66 63 66 36 35 61 30 30 22   e85ff8bfcf65a00"
0x7fc70f522b3a  3b 7d 80 00 00 00 26 00 83 96 00 09 00 01 ff ff   ;}....&.........
0x7fc70f522b4a  80 06 80 07 80 01 00 01 00 00 7f ff 00 04 7f ff   ................
0x7fc70f522b5a  1f 86 8b 45 00 0b 01 61 85 0a 1a 00 00 00 48 db   ...E...a......H.
0x7fc70f522b6a  34 6e 37 37 74 61 6b 68 6c 35 6b 6d 76 6f 64 38   4n77takhl5kmvod8
0x7fc70f522b7a  71 37 64 68 67 38 67 39 61 62 35 00 00 00 00 0f   q7dhg8g9ab5.....
0x7fc70f522b8a  6d 56 00 00 02 c1 02 d8 00 01 31 35 39 33 37 36   mV........159376
0x7fc70f522b9a  33 35 38 37 5f 5f 64 65 66 61 75 6c 74 7c 61 3a   3587__default|a:
Task: mysqld pid 1721 rule r1 addr 0x7fc70f63b98d
0x7fc70f63b98d  31 39 32 2e 31 36 38 2e 31 30 2e 32 2f 69 6e 64   192.168.10.2/ind
0x7fc70f63b99d  65 78 2e 70 68 70 2f 32 2d 75 6e 63 61 74 65 67   ex.php/2-uncateg
0x7fc70f63b9ad  6f 72 69 73 65 64 2f 31 2d 71 75 69 65 6e 65 73   orised/1-quienes
0x7fc70f63b9bd  2d 73 6f 6d 6f 73 22 3b 73 3a 36 3a 22 65 78 70   -somos";s:6:"exp
0x7fc70f63b9cd  69 72 79 22 3b 69 3a 31 35 39 33 37 36 30 38 31   iry";i:159376081
0x7fc70f63b9dd  32 3b 7d 7d 73 3a 31 33 3a 22 73 65 73 73 69 6f   2;}}s:13:"sessio
0x7fc70f63b9ed  6e 2e 74 6f 6b 65 6e 22 3b 73 3a 33 32 3a 22 5f   n.token";s:32:"_
0x7fc70f63b9fd  63 0f 95 00 00 2e 7b 02 00 00 00 00 00 00 4e 38   c.....{.......N8
0x7fc70f63ba0d  39 39 38 63 37 31 66 65 63 36 61 65 31 30 36 31   998c71fec6ae1061
0x7fc70f63ba1d  65 38 35 66 66 38 62 66 63 66 36 35 61 30 30 22   e85ff8bfcf65a00"
0x7fc70f63ba2d  3b 7d 80 00 00 00 8b 45 00 0b 01 61 85 0a 1a 00   ;}.....E...a....
0x7fc70f63ba3d  04 00 28 05 a3 6e 37 37 74 61 6b 68 6c 35 6b 6d   ..(..n77takhl5km
0x7fc70f63ba4d  76 6f 64 38 71 37 64 68 67 38 67 39 61 62 35 00   vod8q7dhg8g9ab5.
0x7fc70f63ba5d  00 00 00 0f 6d 56 00 00 02 c1 02 d8 00 01 31 35   ....mV........15
0x7fc70f63ba6d  39 33 37 36 33 35 38 37 5f 5f 64 65 66 61 75 6c   93763587__defaul
0x7fc70f63ba7d  74 7c 61 3a 39 3a 7b 73 3a 31 35 3a 22 73 65 73   t|a:9:{s:15:"ses
Task: mysqld pid 1721 rule r1 addr 0x7fc70f6a8c11
0x7fc70f6a8c11  31 39 32 2e 31 36 38 2e 31 30 2e 32 2f 69 6e 64   192.168.10.2/ind
0x7fc70f6a8c21  65 78 2e 70 68 70 2f 32 2d 75 6e 63 61 74 65 67   ex.php/2-uncateg
0x7fc70f6a8c31  6f 72 69 73 65 64 2f 31 2d 71 75 69 65 6e 65 73   orised/1-quienes
0x7fc70f6a8c41  2d 73 6f 6d 6f 73 22 3b 73 3a 36 3a 22 65 78 70   -somos";s:6:"exp
0x7fc70f6a8c51  69 72 79 22 3b 69 3a 31 35 39 33 37 36 30 38 31   iry";i:159376081
0x7fc70f6a8c61  32 3b 7d 7d 73 3a 31 33 3a 22 73 65 73 73 69 6f   2;}}s:13:"sessio
0x7fc70f6a8c71  6e 2e 74 6f 6b 65 6e 22 3b 73 3a 33 32 3a 22 38   n.token";s:32:"8
0x7fc70f6a8c81  39 39 38 63 37 31 66 65 63 36 61 65 31 30 36 31   998c71fec6ae1061
0x7fc70f6a8c91  65 38 35 66 66 38 62 66 63 66 36 35 61 30 30 22   e85ff8bfcf65a00"
0x7fc70f6a8ca1  3b 7d 08 00 83 50 00 38 00 00 00 1f eb 0b 00 83   ;}...P.8........
0x7fc70f6a8cb1  50 01 1f c8 1f 08 00 83 59 00 38 00 00 00 1f eb   P.......Y.8.....
0x7fc70f6a8cc1  26 00 83 59 00 02 00 02 00 00 ff ff 30 f8 38 37   &..Y........0.87
0x7fc70f6a8cd1  32 6e 35 33 6e 74 6c 6d 6d 66 68 6b 37 74 36 36   2n53ntlmmfhk7t66
0x7fc70f6a8ce1  74 76 65 39 37 6d 32 37 75 30 34 1f 02 00 82 a9   tve97m27u04.....
0x7fc70f6a8cf1  00 38 02 04 00 82 a9 05 99 f0 ff ff ff ff 02 00   .8..............
0x7fc70f6a8d01  82 a9 05 9d 00 04 00 82 a9 05 9f 82 a9 02 00 82   ................
Task: mysqld pid 1721 rule r1 addr 0x7fc70f6a8e11
0x7fc70f6a8e11  31 39 32 2e 31 36 38 2e 31 30 2e 32 2f 69 6e 64   192.168.10.2/ind
0x7fc70f6a8e21  65 78 2e 70 68 70 2f 32 2d 75 6e 63 61 74 65 67   ex.php/2-uncateg
0x7fc70f6a8e31  6f 72 69 73 65 64 2f 31 2d 71 75 69 65 6e 65 73   orised/1-quienes
0x7fc70f6a8e41  2d 73 6f 6d 6f 73 22 3b 73 3a 36 3a 22 65 78 70   -somos";s:6:"exp
0x7fc70f6a8e51  69 72 79 22 3b 69 3a 31 35 39 33 37 36 30 38 31   iry";i:159376081
0x7fc70f6a8e61  32 3b 7d 7d 73 3a 31 33 3a 22 73 65 73 73 69 6f   2;}}s:13:"sessio
0x7fc70f6a8e71  6e 2e 74 6f 6b 65 6e 22 3b 73 3a 33 32 3a 22 38   n.token";s:32:"8
0x7fc70f6a8e81  39 39 38 63 37 31 66 65 63 36 61 65 31 30 36 31   998c71fec6ae1061
0x7fc70f6a8e91  65 38 35 66 66 38 62 66 63 66 36 35 61 30 30 22   e85ff8bfcf65a00"
0x7fc70f6a8ea1  3b 7d 08 00 83 50 00 38 00 00 00 1f eb 0b 00 83   ;}...P.8........
0x7fc70f6a8eb1  50 01 1f c8 1f 08 00 83 59 00 38 00 00 00 1f eb   P.......Y.8.....
0x7fc70f6a8ec1  26 00 83 59 00 02 00 02 00 00 ff ff 30 f8 38 37   &..Y........0.87
0x7fc70f6a8ed1  32 6e 35 33 6e 74 6c 6d 6d 66 68 6b 37 74 36 36   2n53ntlmmfhk7t66
0x7fc70f6a8ee1  74 76 65 39 37 6d 32 37 75 30 34 1f 02 00 82 a9   tve97m27u04.....
0x7fc70f6a8ef1  00 38 02 04 00 82 a9 05 99 f0 ff ff ff ff 02 00   .8..............
0x7fc70f6a8f01  82 a9 05 9d 00 04 00 82 a9 05 9f 82 a9 02 00 82   ................
Task: mysqld pid 1721 rule r1 addr 0x7fc70f6ae27a
0x7fc70f6ae27a  31 39 32 2e 31 36 38 2e 31 30 2e 32 2f 69 6e 64   192.168.10.2/ind
0x7fc70f6ae28a  65 78 2e 70 68 70 2f 32 2d 75 6e 63 61 74 65 67   ex.php/2-uncateg
0x7fc70f6ae29a  6f 72 69 73 65 64 2f 31 2d 71 75 69 65 6e 65 73   orised/1-quienes
0x7fc70f6ae2aa  2d 73 6f 6d 6f 73 22 3b 73 3a 36 3a 22 65 78 70   -somos";s:6:"exp
0x7fc70f6ae2ba  69 72 79 22 3b 69 3a 31 35 39 33 37 36 30 38 31   iry";i:159376081
0x7fc70f6ae2ca  32 3b 7d 7d 73 3a 31 33 3a 22 73 65 73 73 69 6f   2;}}s:13:"sessio
0x7fc70f6ae2da  6e 2e 74 6f 6b 65 6e 22 3b 73 3a 33 32 3a 22 38   n.token";s:32:"8
0x7fc70f6ae2ea  39 39 38 63 37 31 66 65 63 36 61 65 31 30 36 31   998c71fec6ae1061
0x7fc70f6ae2fa  65 38 35 66 66 38 62 66 63 66 36 35 61 30 30 22   e85ff8bfcf65a00"
0x7fc70f6ae30a  3b 7d 00 30 00 1a 6e 35 33 6e 74 6c 6d 6d 66 68   ;}.0..n53ntlmmfh
0x7fc70f6ae31a  6b 37 74 36 36 74 76 65 39 37 6d 32 37 75 30 34   k7t66tve97m27u04
0x7fc70f6ae32a  05 0a 31 35 39 33 37 36 34 31 37 32 07 04 80 00   ..1593764172....
0x7fc70f6ae33a  00 00 a9 00 83 af 00 09 00 01 ff ff 80 06 80 07   ................
0x7fc70f6ae34a  80 01 00 01 00 00 7f ff 00 04 7f ff 02 01 3f 00   ..............?.
0x7fc70f6ae35a  00 02 f8 15 4e 00 00 00 20 08 0b 19 00 02 05 0a   ....N...........
0x7fc70f6ae36a  31 35 39 33 37 36 35 30 31 32 06 85 74 5f 5f 64   1593765012..t__d
Task: mysqld pid 1721 rule r1 addr 0x7fc70f6ae889
0x7fc70f6ae889  31 39 32 2e 31 36 38 2e 31 30 2e 32 2f 69 6e 64   192.168.10.2/ind
0x7fc70f6ae899  65 78 2e 70 68 70 2f 32 2d 75 6e 63 61 74 65 67   ex.php/2-uncateg
0x7fc70f6ae8a9  6f 72 69 73 65 64 2f 31 2d 71 75 69 65 6e 65 73   orised/1-quienes
0x7fc70f6ae8b9  2d 73 6f 6d 6f 73 22 3b 73 3a 36 3a 22 65 78 70   -somos";s:6:"exp
0x7fc70f6ae8c9  69 72 79 22 3b 69 3a 31 35 39 33 37 36 30 38 31   iry";i:159376081
0x7fc70f6ae8d9  32 3b 7d 7d 73 3a 31 33 3a 22 73 65 73 73 69 6f   2;}}s:13:"sessio
0x7fc70f6ae8e9  6e 2e 74 6f 6b 65 6e 22 3b 73 3a 33 32 3a 22 38   n.token";s:32:"8
0x7fc70f6ae8f9  39 39 38 63 37 31 66 65 63 36 61 65 31 30 36 31   998c71fec6ae1061
0x7fc70f6ae909  65 38 35 66 66 38 62 66 63 66 36 35 61 30 30 22   e85ff8bfcf65a00"
0x7fc70f6ae919  3b 7d 08 00 83 59 00 38 00 00 00 20 08 0b 00 83   ;}...Y.8........
0x7fc70f6ae929  59 01 31 24 1f a6 00 83 59 00 02 00 02 00 00 ff   Y.1$....Y.......
0x7fc70f6ae939  ff 31 d4 3c 35 30 31 32 6e 35 33 6e 74 6c 6d 6d   .1.<5012n53ntlmm
0x7fc70f6ae949  66 68 6b 37 74 36 36 74 76 65 39 37 6d 32 37 75   fhk7t66tve97m27u
0x7fc70f6ae959  30 34 02 00 82 f8 00 38 02 04 00 82 f8 14 b6 f0   04.....8........
0x7fc70f6ae969  ff ff ff ff 02 00 82 f8 14 ba 00 04 00 82 f8 14   ................
0x7fc70f6ae979  bc 82 f8 02 00 82 f8 14 c0 93 c5 04 00 80 eb 00   ................
Task: mysqld pid 1721 rule r1 addr 0x7fc70f6aea89
0x7fc70f6aea89  31 39 32 2e 31 36 38 2e 31 30 2e 32 2f 69 6e 64   192.168.10.2/ind
0x7fc70f6aea99  65 78 2e 70 68 70 2f 32 2d 75 6e 63 61 74 65 67   ex.php/2-uncateg
0x7fc70f6aeaa9  6f 72 69 73 65 64 2f 31 2d 71 75 69 65 6e 65 73   orised/1-quienes
0x7fc70f6aeab9  2d 73 6f 6d 6f 73 22 3b 73 3a 36 3a 22 65 78 70   -somos";s:6:"exp
0x7fc70f6aeac9  69 72 79 22 3b 69 3a 31 35 39 33 37 36 30 38 31   iry";i:159376081
0x7fc70f6aead9  32 3b 7d 7d 73 3a 31 33 3a 22 73 65 73 73 69 6f   2;}}s:13:"sessio
0x7fc70f6aeae9  6e 2e 74 6f 6b 65 6e 22 3b 73 3a 33 32 3a 22 38   n.token";s:32:"8
0x7fc70f6aeaf9  39 39 38 63 37 31 66 65 63 36 61 65 31 30 36 31   998c71fec6ae1061
0x7fc70f6aeb09  65 38 35 66 66 38 62 66 63 66 36 35 61 30 30 22   e85ff8bfcf65a00"
0x7fc70f6aeb19  3b 7d 08 00 83 59 00 38 00 00 00 20 08 0b 00 83   ;}...Y.8........
0x7fc70f6aeb29  59 01 31 24 1f a6 00 83 59 00 02 00 02 00 00 ff   Y.1$....Y.......
0x7fc70f6aeb39  ff 31 d4 3c 35 30 31 32 6e 35 33 6e 74 6c 6d 6d   .1.<5012n53ntlmm
0x7fc70f6aeb49  66 68 6b 37 74 36 36 74 76 65 39 37 6d 32 37 75   fhk7t66tve97m27u
0x7fc70f6aeb59  30 34 02 00 82 f8 00 38 02 04 00 82 f8 14 b6 f0   04.....8........
0x7fc70f6aeb69  ff ff ff ff 02 00 82 f8 14 ba 00 04 00 82 f8 14   ................
0x7fc70f6aeb79  bc 82 f8 02 00 82 f8 14 c0 93 c5 04 00 80 eb 00   ................
Task: mysqld pid 1721 rule r1 addr 0x7fc70f6aec89
0x7fc70f6aec89  31 39 32 2e 31 36 38 2e 31 30 2e 32 2f 69 6e 64   192.168.10.2/ind
0x7fc70f6aec99  65 78 2e 70 68 70 2f 32 2d 75 6e 63 61 74 65 67   ex.php/2-uncateg
0x7fc70f6aeca9  6f 72 69 73 65 64 2f 31 2d 71 75 69 65 6e 65 73   orised/1-quienes
0x7fc70f6aecb9  2d 73 6f 6d 6f 73 22 3b 73 3a 36 3a 22 65 78 70   -somos";s:6:"exp
0x7fc70f6aecc9  69 72 79 22 3b 69 3a 31 35 39 33 37 36 30 38 31   iry";i:159376081
0x7fc70f6aecd9  32 3b 7d 7d 73 3a 31 33 3a 22 73 65 73 73 69 6f   2;}}s:13:"sessio
0x7fc70f6aece9  6e 2e 74 6f 6b 65 6e 22 3b 73 3a 33 32 3a 22 38   n.token";s:32:"8
0x7fc70f6aecf9  39 39 38 63 37 31 66 65 63 36 61 65 31 30 36 31   998c71fec6ae1061
0x7fc70f6aed09  65 38 35 66 66 38 62 66 63 66 36 35 61 30 30 22   e85ff8bfcf65a00"
0x7fc70f6aed19  3b 7d 08 00 83 59 00 38 00 00 00 20 08 0b 00 83   ;}...Y.8........
0x7fc70f6aed29  59 01 31 24 1f a6 00 83 59 00 02 00 02 00 00 ff   Y.1$....Y.......
0x7fc70f6aed39  ff 31 d4 3c 35 30 31 32 6e 35 33 6e 74 6c 6d 6d   .1.<5012n53ntlmm
0x7fc70f6aed49  66 68 6b 37 74 36 36 74 76 65 39 37 6d 32 37 75   fhk7t66tve97m27u
0x7fc70f6aed59  30 34 02 00 82 f8 00 38 02 04 00 82 f8 14 b6 f0   04.....8........
0x7fc70f6aed69  ff ff ff ff 02 00 82 f8 14 ba 00 04 00 82 f8 14   ................
0x7fc70f6aed79  bc 82 f8 02 00 82 f8 14 c0 93 c5 04 00 80 eb 00   ................
Task: mysqld pid 1721 rule r1 addr 0x7fc7107b138b
0x7fc7107b138b  31 39 32 2e 31 36 38 2e 31 30 2e 32 2f 69 6e 64   192.168.10.2/ind
0x7fc7107b139b  65 78 2e 70 68 70 2f 32 2d 75 6e 63 61 74 65 67   ex.php/2-uncateg
0x7fc7107b13ab  6f 72 69 73 65 64 2f 31 2d 71 75 69 65 6e 65 73   orised/1-quienes
0x7fc7107b13bb  2d 73 6f 6d 6f 73 22 3b 73 3a 36 3a 22 65 78 70   -somos";s:6:"exp
0x7fc7107b13cb  69 72 79 22 3b 69 3a 31 35 39 33 37 36 30 38 31   iry";i:159376081
0x7fc7107b13db  32 3b 7d 7d 73 3a 31 33 3a 22 73 65 73 73 69 6f   2;}}s:13:"sessio
0x7fc7107b13eb  6e 2e 74 6f 6b 65 6e 22 3b 73 3a 33 32 3a 22 38   n.token";s:32:"8
0x7fc7107b13fb  39 39 38 63 37 31 66 65 63 36 61 65 31 30 36 31   998c71fec6ae1061
0x7fc7107b140b  65 38 35 66 66 38 62 66 63 66 36 35 61 30 30 22   e85ff8bfcf65a00"
0x7fc7107b141b  3b 7d 00 30 00 1a 6e 35 33 6e 74 6c 6d 6d 66 68   ;}.0..n53ntlmmfh
0x7fc7107b142b  6b 37 74 36 36 74 76 65 39 37 6d 32 37 75 30 34   k7t66tve97m27u04
0x7fc7107b143b  05 0a 31 35 39 33 37 36 30 38 31 32 07 04 80 00   ..1593760812....
0x7fc7107b144b  00 00 0e 6b 00 00 00 00 00 00 0c 94 00 00 00 00   ...k............
0x7fc7107b145b  00 00 0c 95 00 00 15 09 00 00 00 00 00 00 00 00   ................
0x7fc7107b146b  00 00 15 40 0d b1 00 00 02 8d 15 62 00 00 02 8d   ...@.......b....
0x7fc7107b147b  0d d3 00 00 00 00 00 00 00 00 00 00 00 00 00 00   ................
Task: mysqld pid 1721 rule r1 addr 0x7fc7107b9648
0x7fc7107b9648  31 39 32 2e 31 36 38 2e 31 30 2e 32 2f 69 6e 64   192.168.10.2/ind
0x7fc7107b9658  65 78 2e 70 68 70 2f 32 2d 75 6e 63 61 74 65 67   ex.php/2-uncateg
0x7fc7107b9668  6f 72 69 73 65 64 2f 31 2d 71 75 69 65 6e 65 73   orised/1-quienes
0x7fc7107b9678  2d 73 6f 6d 6f 73 22 3b 73 3a 36 3a 22 65 78 70   -somos";s:6:"exp
0x7fc7107b9688  69 72 79 22 3b 69 3a 31 35 39 33 37 36 30 38 31   iry";i:159376081
0x7fc7107b9698  32 3b 7d 7d 73 3a 31 33 3a 22 73 65 73 73 69 6f   2;}}s:13:"sessio
0x7fc7107b96a8  6e 2e 74 6f 6b 65 6e 22 3b 73 3a 33 32 3a 22 38   n.token";s:32:"8
0x7fc7107b96b8  39 39 38 63 37 31 66 65 63 36 61 65 31 30 36 31   998c71fec6ae1061
0x7fc7107b96c8  65 38 35 66 66 38 62 66 63 66 36 35 61 30 30 22   e85ff8bfcf65a00"
0x7fc7107b96d8  3b 7d 00 30 00 1a 6e 35 33 6e 74 6c 6d 6d 66 68   ;}.0..n53ntlmmfh
0x7fc7107b96e8  6b 37 74 36 36 74 76 65 39 37 6d 32 37 75 30 34   k7t66tve97m27u04
0x7fc7107b96f8  05 0a 31 35 39 33 37 36 31 36 35 32 07 04 80 00   ..1593761652....
0x7fc7107b9708  00 00 11 28 00 00 00 00 00 00 0c 99 00 00 00 00   ...(............
0x7fc7107b9718  00 00 0c 9a 00 00 17 c6 00 00 00 00 00 00 00 00   ................
0x7fc7107b9728  00 00 17 fd 10 6e 00 00 02 8f 18 1f 00 00 02 8f   .....n..........
0x7fc7107b9738  10 90 00 00 00 00 00 00 00 00 00 00 00 00 00 00   ................
Task: mysqld pid 1721 rule r1 addr 0x7fc7107c0707
0x7fc7107c0707  31 39 32 2e 31 36 38 2e 31 30 2e 32 2f 69 6e 64   192.168.10.2/ind
0x7fc7107c0717  65 78 2e 70 68 70 2f 32 2d 75 6e 63 61 74 65 67   ex.php/2-uncateg
0x7fc7107c0727  6f 72 69 73 65 64 2f 31 2d 71 75 69 65 6e 65 73   orised/1-quienes
0x7fc7107c0737  2d 73 6f 6d 6f 73 22 3b 73 3a 36 3a 22 65 78 70   -somos";s:6:"exp
0x7fc7107c0747  69 72 79 22 3b 69 3a 31 35 39 33 37 36 30 38 31   iry";i:159376081
0x7fc7107c0757  32 3b 7d 7d 73 3a 31 33 3a 22 73 65 73 73 69 6f   2;}}s:13:"sessio
0x7fc7107c0767  6e 2e 74 6f 6b 65 6e 22 3b 73 3a 33 32 3a 22 38   n.token";s:32:"8
0x7fc7107c0777  39 39 38 63 37 31 66 65 63 36 61 65 31 30 36 31   998c71fec6ae1061
0x7fc7107c0787  65 38 35 66 66 38 62 66 63 66 36 35 61 30 30 22   e85ff8bfcf65a00"
0x7fc7107c0797  3b 7d 00 30 00 1a 6e 35 33 6e 74 6c 6d 6d 66 68   ;}.0..n53ntlmmfh
0x7fc7107c07a7  6b 37 74 36 36 74 76 65 39 37 6d 32 37 75 30 34   k7t66tve97m27u04
0x7fc7107c07b7  05 0a 31 35 39 33 37 36 32 34 39 32 07 04 80 00   ..1593762492....
0x7fc7107c07c7  00 00 01 e7 00 00 00 00 00 00 0c 9e 00 00 00 00   ................
0x7fc7107c07d7  00 00 0c 9f 00 00 08 85 00 00 00 00 00 00 00 00   ................
0x7fc7107c07e7  00 00 08 bc 01 2d 00 00 02 91 08 de 00 00 02 91   .....-..........
0x7fc7107c07f7  01 4f 00 00 00 00 00 00 00 00 00 00 00 00 00 00   .O..............
Task: mysqld pid 1721 rule r1 addr 0x7fc710820b51
0x7fc710820b51  31 39 32 2e 31 36 38 2e 31 30 2e 32 2f 69 6e 64   192.168.10.2/ind
0x7fc710820b61  65 78 2e 70 68 70 2f 32 2d 75 6e 63 61 74 65 67   ex.php/2-uncateg
0x7fc710820b71  6f 72 69 73 65 64 2f 31 2d 71 75 69 65 6e 65 73   orised/1-quienes
0x7fc710820b81  2d 73 6f 6d 6f 73 22 3b 73 3a 36 3a 22 65 78 70   -somos";s:6:"exp
0x7fc710820b91  69 72 79 22 3b 69 3a 31 35 39 33 37 36 30 38 31   iry";i:159376081
0x7fc710820ba1  32 3b 7d 7d 73 3a 31 33 3a 22 73 65 73 73 69 6f   2;}}s:13:"sessio
0x7fc710820bb1  6e 2e 74 6f 6b 65 6e 22 3b 73 3a 33 32 3a 22 38   n.token";s:32:"8
0x7fc710820bc1  39 39 38 63 37 31 66 65 63 36 61 65 31 30 36 31   998c71fec6ae1061
0x7fc710820bd1  65 38 35 66 66 38 62 66 63 66 36 35 61 30 30 22   e85ff8bfcf65a00"
0x7fc710820be1  3b 7d 00 30 00 1a 6e 35 33 6e 74 6c 6d 6d 66 68   ;}.0..n53ntlmmfh
0x7fc710820bf1  6b 37 74 36 36 74 76 65 39 37 6d 32 37 75 30 34   k7t66tve97m27u04
0x7fc710820c01  05 0a 31 35 39 33 37 36 33 33 33 32 07 04 80 00   ..1593763332....
0x7fc710820c11  00 00 06 31 00 00 00 00 00 00 00 00 00 00 00 00   ...1............
0x7fc710820c21  00 00 00 00 00 00 00 00 00 00 00 00 00 00 00 00   ................
0x7fc710820c31  00 00 00 00 00 00 00 00 00 00 00 00 00 00 00 00   ................
0x7fc710820c41  00 00 00 00 00 00 00 00 00 00 00 00 00 00 00 00   ................
Task: mysqld pid 1721 rule r1 addr 0x7fc71087c707
0x7fc71087c707  31 39 32 2e 31 36 38 2e 31 30 2e 32 2f 69 6e 64   192.168.10.2/ind
0x7fc71087c717  65 78 2e 70 68 70 2f 32 2d 75 6e 63 61 74 65 67   ex.php/2-uncateg
0x7fc71087c727  6f 72 69 73 65 64 2f 31 2d 71 75 69 65 6e 65 73   orised/1-quienes
0x7fc71087c737  2d 73 6f 6d 6f 73 22 3b 73 3a 36 3a 22 65 78 70   -somos";s:6:"exp
0x7fc71087c747  69 72 79 22 3b 69 3a 31 35 39 33 37 36 30 38 30   iry";i:159376080
0x7fc71087c757  30 3b 7d 7d 73 3a 31 33 3a 22 73 65 73 73 69 6f   0;}}s:13:"sessio
0x7fc71087c767  6e 2e 74 6f 6b 65 6e 22 3b 73 3a 33 32 3a 22 38   n.token";s:32:"8
0x7fc71087c777  30 65 36 63 37 63 39 37 64 65 62 63 37 64 39 30   0e6c7c97debc7d90
0x7fc71087c787  35 35 63 37 35 35 34 32 38 39 63 61 33 35 36 22   55c7554289ca356"
0x7fc71087c797  3b 7d 00 30 00 1a 37 34 72 35 30 34 71 66 39 73   ;}.0..74r504qf9s
0x7fc71087c7a7  6a 72 30 33 6a 68 6f 38 34 31 6e 35 37 6a 32 36   jr03jho841n57j26
0x7fc71087c7b7  05 0a 31 35 39 33 37 36 30 38 30 30 07 04 80 00   ..1593760800....
0x7fc71087c7c7  00 3c 01 e7 00 00 00 00 00 00 0e 3a 00 00 00 00   .<.........:....
0x7fc71087c7d7  00 00 0e 3b 00 00 08 85 00 00 00 00 00 00 00 00   ...;............
0x7fc71087c7e7  00 00 08 bc 01 2d 00 00 02 c0 08 de 00 00 02 c0   .....-..........
0x7fc71087c7f7  01 4f 00 00 00 00 00 00 00 00 00 00 00 00 00 00   .O..............
Task: mysqld pid 1721 rule r1 addr 0x7fc710888e7c
0x7fc710888e7c  31 39 32 2e 31 36 38 2e 31 30 2e 32 2f 22 3b 73   192.168.10.2/";s
0x7fc710888e8c  3a 34 3a 22 64 61 74 61 22 3b 61 3a 30 3a 7b 7d   :4:"data";a:0:{}
0x7fc710888e9c  7d 7d 7d 7d 73 3a 39 3a 22 73 65 70 61 72 61 74   }}}}s:9:"separat
0x7fc710888eac  6f 72 22 3b 73 3a 31 3a 22 2e 22 3b 7d 73 3a 34   or";s:1:".";}s:4
0x7fc710888ebc  3a 22 75 73 65 72 22 3b 4f 3a 35 3a 22 4a 55 73   :"user";O:5:"JUs
0x7fc710888ecc  65 72 22 3a 32 38 3a 7b 73 3a 39 3a 22 5c 30 5c   er":28:{s:9:"\0\
0x7fc710888edc  30 5c 30 69 73 52 6f 6f 74 22 3b 62 3a 30 3b 73   0\0isRoot";b:0;s
0x7fc710888eec  3a 32 3a 22 69 64 22 3b 73 3a 32 3a 22 36 30 22   :2:"id";s:2:"60"
0x7fc710888efc  3b 73 3a 34 3a 22 6e 61 6d 65 22 3b 73 3a 32 32   ;s:4:"name";s:22
0x7fc710888f0c  3a 22 44 65 70 61 72 74 61 6d 65 6e 74 6f 20 43   :"Departamento.C
0x7fc710888f1c  6f 6d 65 72 63 69 61 6c 22 3b 73 3a 38 3a 22 75   omercial";s:8:"u
0x7fc710888f2c  73 65 72 6e 61 6d 65 22 3b 73 3a 39 3a 22 63 6f   sername";s:9:"co
0x7fc710888f3c  6d 65 72 63 69 61 6c 22 3b 73 3a 35 3a 22 65 6d   mercial";s:5:"em
0x7fc710888f4c  61 69 6c 22 3b 73 3a 32 33 3a 22 63 6f 6d 65 72   ail";s:23:"comer
0x7fc710888f5c  63 69 61 6c 40 75 6f 63 6f 6e 74 72 6f 6c 2e 63   cial@uocontrol.c
0x7fc710888f6c  6f 6d 22 3b 73 3a 38 3a 22 70 61 73 73 77 6f 72   om";s:8:"passwor
Task: mysqld pid 1721 rule r1 addr 0x7fc710889408
0x7fc710889408  31 39 32 2e 31 36 38 2e 31 30 2e 32 2f 69 6e 64   192.168.10.2/ind
0x7fc710889418  65 78 2e 70 68 70 2f 32 2d 75 6e 63 61 74 65 67   ex.php/2-uncateg
0x7fc710889428  6f 72 69 73 65 64 2f 31 2d 71 75 69 65 6e 65 73   orised/1-quienes
0x7fc710889438  2d 73 6f 6d 6f 73 22 3b 73 3a 36 3a 22 65 78 70   -somos";s:6:"exp
0x7fc710889448  69 72 79 22 3b 69 3a 31 35 39 33 37 36 30 38 30   iry";i:159376080
0x7fc710889458  30 3b 7d 7d 73 3a 31 33 3a 22 73 65 73 73 69 6f   0;}}s:13:"sessio
0x7fc710889468  6e 2e 74 6f 6b 65 6e 22 3b 73 3a 33 32 3a 22 38   n.token";s:32:"8
0x7fc710889478  30 65 36 63 37 63 39 37 64 65 62 63 37 64 39 30   0e6c7c97debc7d90
0x7fc710889488  35 35 63 37 35 35 34 32 38 39 63 61 33 35 36 22   55c7554289ca356"
0x7fc710889498  3b 7d 0c 71 00 00 00 00 00 00 12 73 00 00 00 00   ;}.q.......s....
0x7fc7108894a8  00 00 12 74 00 00 15 56 00 00 00 00 00 00 00 00   ...t...V........
0x7fc7108894b8  00 00 15 8d 0b b7 00 00 02 c3 15 af 00 00 02 c3   ................
0x7fc7108894c8  0b d9 00 00 00 00 00 00 00 00 00 00 00 00 00 00   ................
0x7fc7108894d8  00 00 00 00 00 00 00 00 00 00 00 00 00 00 00 00   ................
0x7fc7108894e8  00 00 00 00 00 00 00 00 00 00 00 00 00 00 00 00   ................
0x7fc7108894f8  00 00 00 00 00 00 00 00 00 00 00 00 00 00 00 00   ................
Task: mysqld pid 1721 rule r1 addr 0x7fc71095da6e
0x7fc71095da6e  31 39 32 2e 31 36 38 2e 31 30 2e 32 2f 69 6e 64   192.168.10.2/ind
0x7fc71095da7e  65 78 2e 70 68 70 2f 32 2d 75 6e 63 61 74 65 67   ex.php/2-uncateg
0x7fc71095da8e  6f 72 69 73 65 64 2f 31 2d 71 75 69 65 6e 65 73   orised/1-quienes
0x7fc71095da9e  2d 73 6f 6d 6f 73 22 3b 73 3a 36 3a 22 65 78 70   -somos";s:6:"exp
0x7fc71095daae  69 72 79 22 3b 69 3a 31 35 39 33 37 36 30 38 31   iry";i:159376081
0x7fc71095dabe  32 3b 7d 7d 73 3a 31 33 3a 22 73 65 73 73 69 6f   2;}}s:13:"sessio
0x7fc71095dace  6e 2e 74 6f 6b 65 6e 22 3b 73 3a 33 32 3a 22 38   n.token";s:32:"8
0x7fc71095dade  39 39 38 63 37 31 66 65 63 36 61 65 31 30 36 31   998c71fec6ae1061
0x7fc71095daee  65 38 35 66 66 38 62 66 63 66 36 35 61 30 30 22   e85ff8bfcf65a00"
0x7fc71095dafe  3b 7d 00 30 00 1a 6e 35 33 6e 74 6c 6d 6d 66 68   ;}.0..n53ntlmmfh
0x7fc71095db0e  6b 37 74 36 36 74 76 65 39 37 6d 32 37 75 30 34   k7t66tve97m27u04
0x7fc71095db1e  05 0a 31 35 39 33 37 36 34 31 37 32 07 04 80 00   ..1593764172....
0x7fc71095db2e  00 00 15 4e 00 00 00 00 00 00 00 00 00 00 00 00   ...N............
0x7fc71095db3e  00 00 00 00 00 00 00 00 00 00 00 00 00 00 00 00   ................
0x7fc71095db4e  00 00 00 00 00 00 00 00 00 00 00 00 00 00 00 00   ................
0x7fc71095db5e  00 00 00 00 00 00 00 00 00 00 00 00 00 00 00 00   ................
Task: mysqld pid 1721 rule r1 addr 0x7fc710ba502e
0x7fc710ba502e  31 39 32 2e 31 36 38 2e 31 30 2e 32 2f 69 6e 64   192.168.10.2/ind
0x7fc710ba503e  65 78 2e 70 68 70 2f 32 2d 75 6e 63 61 74 65 67   ex.php/2-uncateg
0x7fc710ba504e  6f 72 69 73 65 64 2f 31 2d 71 75 69 65 6e 65 73   orised/1-quienes
0x7fc710ba505e  2d 73 6f 6d 6f 73 22 3b 73 3a 36 3a 22 65 78 70   -somos";s:6:"exp
0x7fc710ba506e  69 72 79 22 3b 69 3a 31 35 39 33 37 36 30 38 31   iry";i:159376081
0x7fc710ba507e  32 3b 7d 7d 73 3a 31 33 3a 22 73 65 73 73 69 6f   2;}}s:13:"sessio
0x7fc710ba508e  6e 2e 74 6f 6b 65 6e 22 3b 73 3a 33 32 3a 22 38   n.token";s:32:"8
0x7fc710ba509e  39 39 38 63 37 31 66 65 63 36 61 65 31 30 36 31   998c71fec6ae1061
0x7fc710ba50ae  65 38 35 66 66 38 62 66 63 66 36 35 61 30 30 22   e85ff8bfcf65a00"
0x7fc710ba50be  3b 7d 80 00 00 00 00 61 85 0a 1a 00 05 00 28 29   ;}.....a......()
0x7fc710ba50ce  39 6e 37 37 74 61 6b 68 6c 35 6b 6d 76 6f 64 38   9n77takhl5kmvod8
0x7fc710ba50de  71 37 64 68 67 38 67 39 61 62 35 00 00 00 00 0f   q7dhg8g9ab5.....
0x7fc710ba50ee  6d 56 00 00 02 c1 02 d8 00 01 31 35 39 33 37 36   mV........159376
0x7fc710ba50fe  33 35 38 37 5f 5f 64 65 66 61 75 6c 74 7c 61 3a   3587__default|a:
0x7fc710ba510e  39 3a 7b 73 3a 31 35 3a 22 73 65 73 73 69 6f 6e   9:{s:15:"session
0x7fc710ba511e  2e 63 6f 75 6e 74 65 72 22 3b 69 3a 31 3b 73 3a   .counter";i:1;s:
Task: mysqld pid 1721 rule r1 addr 0x7fc71d3ba12b
0x7fc71d3ba12b  31 39 32 2e 31 36 38 2e 31 30 2e 32 2f 69 6e 64   192.168.10.2/ind
0x7fc71d3ba13b  65 78 2e 70 68 70 2f 32 2d 75 6e 63 61 74 65 67   ex.php/2-uncateg
0x7fc71d3ba14b  6f 72 69 73 65 64 2f 31 2d 71 75 69 65 6e 65 73   orised/1-quienes
0x7fc71d3ba15b  2d 73 6f 6d 6f 73 22 3b 73 3a 36 3a 22 65 78 70   -somos";s:6:"exp
0x7fc71d3ba16b  69 72 79 22 3b 69 3a 31 35 39 33 37 36 30 38 31   iry";i:159376081
0x7fc71d3ba17b  32 3b 7d 7d 73 3a 31 33 3a 22 73 65 73 73 69 6f   2;}}s:13:"sessio
0x7fc71d3ba18b  6e 2e 74 6f 6b 65 6e 22 3b 73 3a 33 32 3a 22 38   n.token";s:32:"8
0x7fc71d3ba19b  39 39 38 63 37 31 66 65 63 36 61 65 31 30 36 31   998c71fec6ae1061
0x7fc71d3ba1ab  65 38 35 66 66 38 62 66 63 66 36 35 61 30 30 22   e85ff8bfcf65a00"
0x7fc71d3ba1bb  3b 7d 05 00 00 05 fe 00 00 02 00 6e 22 80 ac f2   ;}.........n"...
0x7fc71d3ba1cb  00 00 00 00 00 00 00 00 00 00 00 00 00 b8 92 2e   ................
0x7fc71d3ba1db  1d c7 7f 00 00 b0 9b 3b 1d c7 7f 00 00 c8 a1 3b   .......;.......;
0x7fc71d3ba1eb  1d c7 7f 00 00 c8 a1 3b 1d c7 7f 00 00 07 00 00   .......;........
0x7fc71d3ba1fb  00 00 00 00 00 b8 90 2e 1d c7 7f 00 00 00 00 00   ................
0x7fc71d3ba20b  00 00 00 00 00 b8 92 2e 1d c7 7f 00 00 b0 9b 3b   ...............;
0x7fc71d3ba21b  1d c7 7f 00 00 00 a2 3b 1d c7 7f 00 00 00 a2 3b   .......;.......;
Task: mysqld pid 1721 rule r1 addr 0x7fc722617cb1
0x7fc722617cb1  31 39 32 2e 31 36 38 2e 31 30 2e 32 2f 69 6e 64   192.168.10.2/ind
0x7fc722617cc1  65 78 2e 70 68 70 2f 32 2d 75 6e 63 61 74 65 67   ex.php/2-uncateg
0x7fc722617cd1  6f 72 69 73 65 64 2f 31 2d 71 75 69 65 6e 65 73   orised/1-quienes
0x7fc722617ce1  2d 73 6f 6d 6f 73 5c 22 3b 73 3a 36 3a 5c 22 65   -somos\";s:6:\"e
0x7fc722617cf1  78 70 69 72 79 5c 22 3b 69 3a 31 35 39 33 37 36   xpiry\";i:159376
0x7fc722617d01  30 38 31 32 3b 7d 7d 73 3a 31 33 3a 5c 22 73 65   0812;}}s:13:\"se
0x7fc722617d11  73 73 69 6f 6e 2e 74 6f 6b 65 6e 5c 22 3b 73 3a   ssion.token\";s:
0x7fc722617d21  33 32 3a 5c 22 38 39 39 38 63 37 31 66 65 63 36   32:\"8998c71fec6
0x7fc722617d31  61 65 31 30 36 31 65 38 35 66 66 38 62 66 63 66   ae1061e85ff8bfcf
0x7fc722617d41  36 35 61 30 30 5c 22 3b 7d 27 0a 09 2c 20 60 74   65a00\";}'..,.`t
0x7fc722617d51  69 6d 65 60 20 3d 20 27 31 35 39 33 37 36 35 30   ime`.=.'15937650
0x7fc722617d61  31 32 27 0a 57 48 45 52 45 20 60 73 65 73 73 69   12'.WHERE.`sessi
0x7fc722617d71  6f 6e 5f 69 64 60 20 3d 20 27 6e 35 33 6e 74 6c   on_id`.=.'n53ntl
0x7fc722617d81  6d 6d 66 68 6b 37 74 36 36 74 76 65 39 37 6d 32   mmfhk7t66tve97m2
0x7fc722617d91  37 75 30 34 27 0a 30 27 0a 57 48 45 52 45 20 60   7u04'.0'.WHERE.`
0x7fc722617da1  73 65 73 73 69 6f 6e 5f 69 64 60 20 3d 20 27 6c   session_id`.=.'l
Task: mysqld pid 1721 rule r1 addr 0x7fc722df96a4
0x7fc722df96a4  31 39 32 2e 31 36 38 2e 31 30 2e 32 2f 69 6e 64   192.168.10.2/ind
0x7fc722df96b4  65 78 2e 70 68 70 2f 32 2d 75 6e 63 61 74 65 67   ex.php/2-uncateg
0x7fc722df96c4  6f 72 69 73 65 64 2f 31 2d 71 75 69 65 6e 65 73   orised/1-quienes
0x7fc722df96d4  2d 73 6f 6d 6f 73 5c 22 3b 73 3a 36 3a 5c 22 65   -somos\";s:6:\"e
0x7fc722df96e4  78 70 69 72 79 5c 22 3b 69 3a 31 35 39 33 37 36   xpiry\";i:159376
0x7fc722df96f4  30 38 31 32 3b 7d 7d 73 3a 31 33 3a 5c 22 73 65   0812;}}s:13:\"se
0x7fc722df9704  73 73 69 6f 6e 2e 74 6f 6b 65 6e 5c 22 3b 73 3a   ssion.token\";s:
0x7fc722df9714  33 32 3a 5c 22 38 39 39 38 63 37 31 66 65 63 36   32:\"8998c71fec6
0x7fc722df9724  61 65 31 30 36 31 65 38 35 66 66 38 62 66 63 66   ae1061e85ff8bfcf
0x7fc722df9734  36 35 61 30 30 5c 22 3b 7d 27 0a 09 2c 20 60 74   65a00\";}'..,.`t
0x7fc722df9744  69 6d 65 60 20 3d 20 27 31 35 39 33 37 36 35 30   ime`.=.'15937650
0x7fc722df9754  31 32 27 0a 57 48 45 52 45 20 60 73 65 73 73 69   12'.WHERE.`sessi
0x7fc722df9764  6f 6e 5f 69 64 60 20 3d 20 27 6e 35 33 6e 74 6c   on_id`.=.'n53ntl
0x7fc722df9774  6d 6d 66 68 6b 37 74 36 36 74 76 65 39 37 6d 32   mmfhk7t66tve97m2
0x7fc722df9784  37 75 30 34 27 00 30 27 0a 57 48 45 52 45 20 60   7u04'.0'.WHERE.`
0x7fc722df9794  73 65 73 73 69 6f 6e 5f 69 64 60 20 3d 20 27 6c   session_id`.=.'l
Task: sshd pid 2213 rule r1 addr 0x7f8529d9f760
0x7f8529d9f760  31 39 32 2e 31 36 38 2e 31 30 2e 32 30 30 00 00   192.168.10.200..
0x7f8529d9f770  01 bf b8 fe 15 d1 d3 a2 d2 5a ba 61 29 25 90 fa   .........Z.a)%..
0x7f8529d9f780  30 00 00 00 00 00 00 00 31 00 00 00 00 00 00 00   0.......1.......
0x7f8529d9f790  cd c5 23 10 17 3b 11 74 6e 83 19 b1 b9 fa b1 09   ..#..;.tn.......
0x7f8529d9f7a0  01 bf b8 fe 15 d1 d3 a2 d2 5a ba 61 29 25 90 fa   .........Z.a)%..
0x7f8529d9f7b0  00 00 00 00 00 00 00 00 21 00 00 00 00 00 00 00   ........!.......
0x7f8529d9f7c0  4c aa cd 26 85 7f 00 00 fe ea 54 77 20 f2 05 b1   L..&......Tw....
0x7f8529d9f7d0  20 00 00 00 00 00 00 00 31 00 00 00 00 00 00 00   ........1.......
0x7f8529d9f7e0  e0 18 d9 2e c1 eb 71 cd ac 3e e7 1e e7 c0 35 35   ......q..>....55
0x7f8529d9f7f0  6f 1d 5e 94 03 25 81 2f 97 19 0c ce 42 5f 97 ab   o.^..%./....B_..
0x7f8529d9f800  00 00 00 00 00 00 00 00 f1 00 00 00 00 00 00 00   ................
0x7f8529d9f810  e0 3d 04 28 85 7f 00 00 d0 21 da 29 85 7f 00 00   .=.(.....!.)....
0x7f8529d9f820  b0 22 da 29 85 7f 00 00 04 00 00 00 04 00 00 00   .".)............
0x7f8529d9f830  00 00 00 00 00 00 00 00 e0 22 da 29 85 7f 00 00   .........".)....
0x7f8529d9f840  01 00 00 00 01 00 00 00 00 00 00 00 00 00 00 00   ................
0x7f8529d9f850  9f 01 00 00 01 00 00 00 04 00 00 00 00 00 00 00   ................
Task: sshd pid 2213 rule r1 addr 0x7f8529da2160
0x7f8529da2160  31 39 32 2e 31 36 38 2e 31 30 2e 32 30 30 00 00   192.168.10.200..
0x7f8529da2170  20 00 00 00 00 00 00 00 21 00 00 00 00 00 00 00   ........!.......
0x7f8529da2180  01 00 00 00 00 00 00 00 04 00 00 00 04 00 00 00   ................
0x7f8529da2190  00 00 00 00 01 00 00 00 31 00 00 00 00 00 00 00   ........1.......
0x7f8529da21a0  c0 f7 d9 29 85 7f 00 00 00 00 00 00 00 00 00 00   ...)............
0x7f8529da21b0  00 00 00 00 00 00 00 00 e7 93 3a aa d8 35 c6 5a   ..........:..5.Z
0x7f8529da21c0  30 00 00 00 00 00 00 00 61 00 00 00 00 00 00 00   0.......a.......
0x7f8529da21d0  e0 3d 04 28 85 7f 00 00 30 22 da 29 85 7f 00 00   .=.(....0".)....
0x7f8529da21e0  04 00 00 00 04 00 00 00 00 00 00 00 00 00 00 00   ................
0x7f8529da21f0  60 22 da 29 85 7f 00 00 04 00 00 00 04 00 00 00   `".)............
0x7f8529da2200  00 00 00 00 00 00 00 00 90 22 da 29 85 7f 00 00   .........".)....
0x7f8529da2210  01 00 00 00 01 00 00 00 00 00 00 00 00 00 00 00   ................
0x7f8529da2220  01 00 00 00 00 00 00 00 31 00 00 00 00 00 00 00   ........1.......
0x7f8529da2230  96 c2 98 d8 45 39 a1 f4 a0 33 eb 2d 81 7d 03 77   ....E9...3.-.}.w
0x7f8529da2240  f2 40 a4 63 e5 e6 bc f8 47 42 2c e1 f2 d1 17 6b   .@.c....GB,....k
0x7f8529da2250  00 00 00 00 00 00 00 00 31 00 00 00 00 00 00 00   ........1.......
Task: sshd pid 2213 rule r1 addr 0x7f8529da64b5
0x7f8529da64b5  31 39 32 2e 31 36 38 2e 31 30 2e 32 0a 20 20 53   192.168.10.2...S
0x7f8529da64c5  77 61 70 20 75 73 61 67 65 3a 20 20 20 30 25 0a   wap.usage:...0%.
0x7f8529da64d5  0a 20 20 47 72 61 70 68 20 74 68 69 73 20 64 61   ...Graph.this.da
0x7f8529da64e5  74 61 20 61 6e 64 20 6d 61 6e 61 67 65 20 74 68   ta.and.manage.th
0x7f8529da64f5  69 73 20 73 79 73 74 65 6d 20 61 74 3a 0a 20 20   is.system.at:...
0x7f8529da6505  20 20 68 74 74 70 73 3a 2f 2f 6c 61 6e 64 73 63   ..https://landsc
0x7f8529da6515  61 70 65 2e 63 61 6e 6f 6e 69 63 61 6c 2e 63 6f   ape.canonical.co
0x7f8529da6525  6d 2f 0a 0a 4e 65 77 20 72 65 6c 65 61 73 65 20   m/..New.release.
0x7f8529da6535  27 31 34 2e 30 34 2e 36 20 4c 54 53 27 20 61 76   '14.04.6.LTS'.av
0x7f8529da6545  61 69 6c 61 62 6c 65 2e 0a 52 75 6e 20 27 64 6f   ailable..Run.'do
0x7f8529da6555  2d 72 65 6c 65 61 73 65 2d 75 70 67 72 61 64 65   -release-upgrade
0x7f8529da6565  27 20 74 6f 20 75 70 67 72 61 64 65 20 74 6f 20   '.to.upgrade.to.
0x7f8529da6575  69 74 2e 0a 0a 0a 59 6f 75 72 20 48 61 72 64 77   it....Your.Hardw
0x7f8529da6585  61 72 65 20 45 6e 61 62 6c 65 6d 65 6e 74 20 53   are.Enablement.S
0x7f8529da6595  74 61 63 6b 20 28 48 57 45 29 20 69 73 20 73 75   tack.(HWE).is.su
0x7f8529da65a5  70 70 6f 72 74 65 64 20 75 6e 74 69 6c 20 41 70   pported.until.Ap
Task: sshd pid 2213 rule r1 addr 0x7f8529dcf075
0x7f8529dcf075  31 39 32 2e 31 36 38 2e 31 30 2e 32 0a 20 20 53   192.168.10.2...S
0x7f8529dcf085  77 61 70 20 75 73 61 67 65 3a 20 20 20 30 25 0a   wap.usage:...0%.
0x7f8529dcf095  0a 20 20 47 72 61 70 68 20 74 68 69 73 20 64 61   ...Graph.this.da
0x7f8529dcf0a5  74 61 20 61 6e 64 20 6d 61 6e 61 67 65 20 74 68   ta.and.manage.th
0x7f8529dcf0b5  69 73 20 73 79 73 74 65 6d 20 61 74 3a 0a 20 20   is.system.at:...
0x7f8529dcf0c5  20 20 68 74 74 70 73 3a 2f 2f 6c 61 6e 64 73 63   ..https://landsc
0x7f8529dcf0d5  61 70 65 2e 63 61 6e 6f 6e 69 63 61 6c 2e 63 6f   ape.canonical.co
0x7f8529dcf0e5  6d 2f 0a 0a 4e 65 77 20 72 65 6c 65 61 73 65 20   m/..New.release.
0x7f8529dcf0f5  27 31 34 2e 30 34 2e 36 20 4c 54 53 27 20 61 76   '14.04.6.LTS'.av
0x7f8529dcf105  61 69 6c 61 62 6c 65 2e 0a 52 75 6e 20 27 64 6f   ailable..Run.'do
0x7f8529dcf115  2d 72 65 6c 65 61 73 65 2d 75 70 67 72 61 64 65   -release-upgrade
0x7f8529dcf125  27 20 74 6f 20 75 70 67 72 61 64 65 20 74 6f 20   '.to.upgrade.to.
0x7f8529dcf135  69 74 2e 0a 0a 0a 59 6f 75 72 20 48 61 72 64 77   it....Your.Hardw
0x7f8529dcf145  61 72 65 20 45 6e 61 62 6c 65 6d 65 6e 74 20 53   are.Enablement.S
0x7f8529dcf155  74 61 63 6b 20 28 48 57 45 29 20 69 73 20 73 75   tack.(HWE).is.su
0x7f8529dcf165  70 70 6f 72 74 65 64 20 75 6e 74 69 6c 20 41 70   pported.until.Ap
Task: sshd pid 2366 rule r1 addr 0x7f8529d9f760
0x7f8529d9f760  31 39 32 2e 31 36 38 2e 31 30 2e 32 30 30 00 00   192.168.10.200..
0x7f8529d9f770  01 bf b8 fe 15 d1 d3 a2 d2 5a ba 61 29 25 90 fa   .........Z.a)%..
0x7f8529d9f780  30 00 00 00 00 00 00 00 31 00 00 00 00 00 00 00   0.......1.......
0x7f8529d9f790  60 f4 d9 29 85 7f 00 00 20 fe dc 29 85 7f 00 00   `..).......)....
0x7f8529d9f7a0  f0 20 da 29 85 7f 00 00 d2 5a ba 61 29 25 90 fa   ...).....Z.a)%..
0x7f8529d9f7b0  30 00 00 00 00 00 00 00 21 00 00 00 00 00 00 00   0.......!.......
0x7f8529d9f7c0  4c aa cd 26 85 7f 00 00 fe ea 54 77 20 f2 05 b1   L..&......Tw....
0x7f8529d9f7d0  20 00 00 00 00 00 00 00 b1 00 00 00 00 00 00 00   ................
0x7f8529d9f7e0  50 aa da 29 85 7f 00 00 20 e9 d9 29 85 7f 00 00   P..).......)....
0x7f8529d9f7f0  d0 f6 d9 29 85 7f 00 00 f0 f6 d9 29 85 7f 00 00   ...).......)....
0x7f8529d9f800  40 e9 d9 29 85 7f 00 00 90 fb d9 29 85 7f 00 00   @..).......)....
0x7f8529d9f810  b0 fb d9 29 85 7f 00 00 e0 66 dc 29 85 7f 00 00   ...).....f.)....
0x7f8529d9f820  20 f2 d9 29 85 7f 00 00 40 f2 d9 29 85 7f 00 00   ...)....@..)....
0x7f8529d9f830  60 f2 d9 29 85 7f 00 00 80 f2 d9 29 85 7f 00 00   `..).......)....
0x7f8529d9f840  30 f3 d9 29 85 7f 00 00 50 f3 d9 29 85 7f 00 00   0..)....P..)....
0x7f8529d9f850  80 20 da 29 85 7f 00 00 a0 20 da 29 85 7f 00 00   ...).......)....
Task: sshd pid 2366 rule r1 addr 0x7f8529da2160
0x7f8529da2160  31 39 32 2e 31 36 38 2e 31 30 2e 32 30 30 00 00   192.168.10.200..
0x7f8529da2170  20 00 00 00 00 00 00 00 21 00 00 00 00 00 00 00   ........!.......
0x7f8529da2180  20 dc ce 25 85 7f 00 00 fe ea 94 86 7b b9 0f 4e   ...%........{..N
0x7f8529da2190  20 00 00 00 00 00 00 00 31 00 00 00 00 00 00 00   ........1.......
0x7f8529da21a0  c0 f7 d9 29 85 7f 00 00 00 00 00 00 00 00 00 00   ...)............
0x7f8529da21b0  00 00 00 00 00 00 00 00 e7 93 3a aa d8 35 c6 5a   ..........:..5.Z
0x7f8529da21c0  30 00 00 00 00 00 00 00 51 01 00 00 00 00 00 00   0.......Q.......
0x7f8529da21d0  b8 78 f1 26 85 7f 00 00 b8 78 f1 26 85 7f 00 00   .x.&.....x.&....
0x7f8529da21e0  04 00 00 00 04 00 00 00 00 00 00 00 00 80 00 00   ................
0x7f8529da21f0  00 00 00 00 00 00 00 00 04 00 00 00 04 00 00 00   ................
0x7f8529da2200  00 00 00 00 00 80 00 00 00 00 00 00 00 00 00 00   ................
0x7f8529da2210  01 00 00 00 01 00 00 00 00 00 00 00 00 80 00 00   ................
0x7f8529da2220  01 00 00 00 00 00 00 00 f1 00 00 00 00 00 00 00   ................
0x7f8529da2230  d0 f7 d9 29 85 7f 00 00 90 1f da 29 85 7f 00 00   ...).......)....
0x7f8529da2240  f2 40 a4 63 e5 e6 bc f8 47 42 2c e1 f2 d1 17 6b   .@.c....GB,....k
0x7f8529da2250  00 00 00 00 00 00 00 00 c1 00 00 00 00 00 00 00   ................
Task: sshd pid 2366 rule r1 addr 0x7f8529da44ab
0x7f8529da44ab  31 39 32 2e 31 36 38 2e 31 30 2e 32 0d 0a 20 20   192.168.10.2....
0x7f8529da44bb  53 77 61 70 20 75 73 61 67 65 3a 20 20 20 30 25   Swap.usage:...0%
0x7f8529da44cb  0d 0a 0d 0a 20 20 47 72 61 70 68 20 74 68 69 73   ......Graph.this
0x7f8529da44db  20 64 61 74 61 20 61 6e 64 20 6d 61 6e 61 67 65   .data.and.manage
0x7f8529da44eb  20 74 68 69 73 20 73 79 73 74 65 6d 20 61 74 3a   .this.system.at:
0x7f8529da44fb  0d 0a 20 20 20 20 68 74 74 70 73 3a 2f 2f 6c 61   ......https://la
0x7f8529da450b  6e 64 73 63 61 70 65 2e 63 61 6e 6f 6e 69 63 61   ndscape.canonica
0x7f8529da451b  6c 2e 63 6f 6d 2f 0d 0a 0d 0a 4e 65 77 20 72 65   l.com/....New.re
0x7f8529da452b  6c 65 61 73 65 20 27 31 34 2e 30 34 2e 36 20 4c   lease.'14.04.6.L
0x7f8529da453b  54 53 27 20 61 76 61 69 6c 61 62 6c 65 2e 0d 0a   TS'.available...
0x7f8529da454b  52 75 6e 20 27 64 6f 2d 72 65 6c 65 61 73 65 2d   Run.'do-release-
0x7f8529da455b  75 70 67 72 61 64 65 27 20 74 6f 20 75 70 67 72   upgrade'.to.upgr
0x7f8529da456b  61 64 65 20 74 6f 20 69 74 2e 0d 0a 0d 0a 0d 0a   ade.to.it.......
0x7f8529da457b  59 6f 75 72 20 48 61 72 64 77 61 72 65 20 45 6e   Your.Hardware.En
0x7f8529da458b  61 62 6c 65 6d 65 6e 74 20 53 74 61 63 6b 20 28   ablement.Stack.(
0x7f8529da459b  48 57 45 29 20 69 73 20 73 75 70 70 6f 72 74 65   HWE).is.supporte
Task: sshd pid 2366 rule r1 addr 0x7f8529da64b5
0x7f8529da64b5  31 39 32 2e 31 36 38 2e 31 30 2e 32 0a 20 20 53   192.168.10.2...S
0x7f8529da64c5  77 61 70 20 75 73 61 67 65 3a 20 20 20 30 25 0a   wap.usage:...0%.
0x7f8529da64d5  0a 20 20 47 72 61 70 68 20 74 68 69 73 20 64 61   ...Graph.this.da
0x7f8529da64e5  74 61 20 61 6e 64 20 6d 61 6e 61 67 65 20 74 68   ta.and.manage.th
0x7f8529da64f5  69 73 20 73 79 73 74 65 6d 20 61 74 3a 0a 20 20   is.system.at:...
0x7f8529da6505  20 20 68 74 74 70 73 3a 2f 2f 6c 61 6e 64 73 63   ..https://landsc
0x7f8529da6515  61 70 65 2e 63 61 6e 6f 6e 69 63 61 6c 2e 63 6f   ape.canonical.co
0x7f8529da6525  6d 2f 0a 0a 4e 65 77 20 72 65 6c 65 61 73 65 20   m/..New.release.
0x7f8529da6535  27 31 34 2e 30 34 2e 36 20 4c 54 53 27 20 61 76   '14.04.6.LTS'.av
0x7f8529da6545  61 69 6c 61 62 6c 65 2e 0a 52 75 6e 20 27 64 6f   ailable..Run.'do
0x7f8529da6555  2d 72 65 6c 65 61 73 65 2d 75 70 67 72 61 64 65   -release-upgrade
0x7f8529da6565  27 20 74 6f 20 75 70 67 72 61 64 65 20 74 6f 20   '.to.upgrade.to.
0x7f8529da6575  69 74 2e 0a 0a 0a 59 6f 75 72 20 48 61 72 64 77   it....Your.Hardw
0x7f8529da6585  61 72 65 20 45 6e 61 62 6c 65 6d 65 6e 74 20 53   are.Enablement.S
0x7f8529da6595  74 61 63 6b 20 28 48 57 45 29 20 69 73 20 73 75   tack.(HWE).is.su
0x7f8529da65a5  70 70 6f 72 74 65 64 20 75 6e 74 69 6c 20 41 70   pported.until.Ap
Task: sshd pid 2366 rule r1 addr 0x7f8529dcf075
0x7f8529dcf075  31 39 32 2e 31 36 38 2e 31 30 2e 32 0a 20 20 53   192.168.10.2...S
0x7f8529dcf085  77 61 70 20 75 73 61 67 65 3a 20 20 20 30 25 0a   wap.usage:...0%.
0x7f8529dcf095  0a 20 20 47 72 61 70 68 20 74 68 69 73 20 64 61   ...Graph.this.da
0x7f8529dcf0a5  74 61 20 61 6e 64 20 6d 61 6e 61 67 65 20 74 68   ta.and.manage.th
0x7f8529dcf0b5  69 73 20 73 79 73 74 65 6d 20 61 74 3a 0a 20 20   is.system.at:...
0x7f8529dcf0c5  20 20 68 74 74 70 73 3a 2f 2f 6c 61 6e 64 73 63   ..https://landsc
0x7f8529dcf0d5  61 70 65 2e 63 61 6e 6f 6e 69 63 61 6c 2e 63 6f   ape.canonical.co
0x7f8529dcf0e5  6d 2f 0a 0a 4e 65 77 20 72 65 6c 65 61 73 65 20   m/..New.release.
0x7f8529dcf0f5  27 31 34 2e 30 34 2e 36 20 4c 54 53 27 20 61 76   '14.04.6.LTS'.av
0x7f8529dcf105  61 69 6c 61 62 6c 65 2e 0a 52 75 6e 20 27 64 6f   ailable..Run.'do
0x7f8529dcf115  2d 72 65 6c 65 61 73 65 2d 75 70 67 72 61 64 65   -release-upgrade
0x7f8529dcf125  27 20 74 6f 20 75 70 67 72 61 64 65 20 74 6f 20   '.to.upgrade.to.
0x7f8529dcf135  69 74 2e 0a 0a 0a 59 6f 75 72 20 48 61 72 64 77   it....Your.Hardw
0x7f8529dcf145  61 72 65 20 45 6e 61 62 6c 65 6d 65 6e 74 20 53   are.Enablement.S
0x7f8529dcf155  74 61 63 6b 20 28 48 57 45 29 20 69 73 20 73 75   tack.(HWE).is.su
0x7f8529dcf165  70 70 6f 72 74 65 64 20 75 6e 74 69 6c 20 41 70   pported.until.Ap
Task: sshd pid 2366 rule r1 addr 0x7f8529dd171d
0x7f8529dd171d  31 39 32 2e 31 36 38 2e 31 30 2e 32 0d 0a 20 20   192.168.10.2....
0x7f8529dd172d  53 77 61 70 20 75 73 61 67 65 3a 20 20 20 30 25   Swap.usage:...0%
0x7f8529dd173d  0d 0a 0d 0a 20 20 47 72 61 70 68 20 74 68 69 73   ......Graph.this
0x7f8529dd174d  20 64 61 74 61 20 61 6e 64 20 6d 61 6e 61 67 65   .data.and.manage
0x7f8529dd175d  20 74 68 69 73 20 73 79 73 74 65 6d 20 61 74 3a   .this.system.at:
0x7f8529dd176d  0d 0a 20 20 20 20 68 74 74 70 73 3a 2f 2f 6c 61   ......https://la
0x7f8529dd177d  6e 64 73 63 61 70 65 2e 63 61 6e 6f 6e 69 63 61   ndscape.canonica
0x7f8529dd178d  6c 2e 63 6f 6d 2f 0d 0a 0d 0a 4e 65 77 20 72 65   l.com/....New.re
0x7f8529dd179d  6c 65 61 73 65 20 27 31 34 2e 30 34 2e 36 20 4c   lease.'14.04.6.L
0x7f8529dd17ad  54 53 27 20 61 76 61 69 6c 61 62 6c 65 2e 0d 0a   TS'.available...
0x7f8529dd17bd  52 75 6e 20 27 64 6f 2d 72 65 6c 65 61 73 65 2d   Run.'do-release-
0x7f8529dd17cd  75 70 67 72 61 64 65 27 20 74 6f 20 75 70 67 72   upgrade'.to.upgr
0x7f8529dd17dd  61 64 65 20 74 6f 20 69 74 2e 0d 0a 0d 0a 0d 0a   ade.to.it.......
0x7f8529dd17ed  59 6f 75 72 20 48 61 72 64 77 61 72 65 20 45 6e   Your.Hardware.En
0x7f8529dd17fd  61 62 6c 65 6d 65 6e 74 20 53 74 61 63 6b 20 28   ablement.Stack.(
0x7f8529dd180d  48 57 45 29 20 69 73 20 73 75 70 70 6f 72 74 65   HWE).is.supporte
Task: sshd pid 2366 rule r1 addr 0x7fffdd59706d
0x7fffdd59706d  31 39 32 2e 31 36 38 2e 31 30 2e 32 0d 0a 20 20   192.168.10.2....
0x7fffdd59707d  53 77 61 70 20 75 73 61 67 65 3a 20 20 20 30 25   Swap.usage:...0%
0x7fffdd59708d  0d 0a 0d 0a 20 20 47 72 61 70 68 20 74 68 69 73   ......Graph.this
0x7fffdd59709d  20 64 61 74 61 20 61 6e 64 20 6d 61 6e 61 67 65   .data.and.manage
0x7fffdd5970ad  20 74 68 69 73 20 73 79 73 74 65 6d 20 61 74 3a   .this.system.at:
0x7fffdd5970bd  0d 0a 20 20 20 20 68 74 74 70 73 3a 2f 2f 6c 61   ......https://la
0x7fffdd5970cd  6e 64 73 63 61 70 65 2e 63 61 6e 6f 6e 69 63 61   ndscape.canonica
0x7fffdd5970dd  6c 2e 63 6f 6d 2f 0d 0a 0d 0a 4e 65 77 20 72 65   l.com/....New.re
0x7fffdd5970ed  6c 65 61 73 65 20 27 31 34 2e 30 34 2e 36 20 4c   lease.'14.04.6.L
0x7fffdd5970fd  54 53 27 20 61 76 61 69 6c 61 62 6c 65 2e 0d 0a   TS'.available...
0x7fffdd59710d  52 75 6e 20 27 64 6f 2d 72 65 6c 65 61 73 65 2d   Run.'do-release-
0x7fffdd59711d  75 70 67 72 61 64 65 27 20 74 6f 20 75 70 67 72   upgrade'.to.upgr
0x7fffdd59712d  61 64 65 20 74 6f 20 69 74 2e 0d 0a 0d 0a 0d 0a   ade.to.it.......
0x7fffdd59713d  59 6f 75 72 20 48 61 72 64 77 61 72 65 20 45 6e   Your.Hardware.En
0x7fffdd59714d  61 62 6c 65 6d 65 6e 74 20 53 74 61 63 6b 20 28   ablement.Stack.(
0x7fffdd59715d  48 57 45 29 20 69 73 20 73 75 70 70 6f 72 74 65   HWE).is.supporte
Task: bash pid 2367 rule r1 addr 0x22b02c8
0x022b02c8  31 39 32 2e 31 36 38 2e 31 30 2e 32 30 30 20 34   192.168.10.200.4
0x022b02d8  37 39 33 38 20 32 32 00 18 00 00 00 00 00 00 00   7938.22.........
0x022b02e8  00 00 00 00 00 00 00 00 00 00 00 00 00 00 00 00   ................
0x022b02f8  00 00 00 00 00 00 00 00 f7 03 55 55 23 00 00 00   ..........UU#...
0x022b0308  53 53 48 5f 43 4c 49 45 4e 54 3d 31 39 32 2e 31   SSH_CLIENT=192.1
0x022b0318  36 38 2e 31 30 2e 32 30 30 20 34 37 39 33 38 20   68.10.200.47938.
0x022b0328  32 32 00 23 00 00 00 00 00 00 00 00 00 00 00 00   22.#............
0x022b0338  00 00 00 00 00 00 00 00 f7 03 55 55 30 00 00 00   ..........UU0...
0x022b0348  88 8b 2a 02 00 00 00 00 c8 03 2b 02 00 00 00 00   ..*.......+.....
0x022b0358  08 04 2b 02 00 00 00 00 00 00 00 00 00 00 00 00   ..+.............
0x022b0368  00 00 00 00 00 00 00 00 01 80 00 00 00 00 00 00   ................
0x022b0378  30 00 00 00 00 00 00 00 f7 03 55 55 20 00 00 00   0.........UU....
0x022b0388  00 00 00 00 00 00 00 00 a8 8b 2a 02 00 00 00 00   ..........*.....
0x022b0398  48 03 2b 02 00 00 00 00 35 94 f1 50 00 00 00 00   H.+.....5..P....
0x022b03a8  20 00 00 00 00 00 00 00 00 00 00 00 00 00 00 00   ................
0x022b03b8  00 00 00 00 00 00 00 00 f7 03 55 55 25 00 00 00   ..........UU%...
Task: bash pid 2367 rule r1 addr 0x22b0313
0x022b0313  31 39 32 2e 31 36 38 2e 31 30 2e 32 30 30 20 34   192.168.10.200.4
0x022b0323  37 39 33 38 20 32 32 00 23 00 00 00 00 00 00 00   7938.22.#.......
0x022b0333  00 00 00 00 00 00 00 00 00 00 00 00 00 f7 03 55   ...............U
0x022b0343  55 30 00 00 00 88 8b 2a 02 00 00 00 00 c8 03 2b   U0.....*.......+
0x022b0353  02 00 00 00 00 08 04 2b 02 00 00 00 00 00 00 00   .......+........
0x022b0363  00 00 00 00 00 00 00 00 00 00 00 00 00 01 80 00   ................
0x022b0373  00 00 00 00 00 30 00 00 00 00 00 00 00 f7 03 55   .....0.........U
0x022b0383  55 20 00 00 00 00 00 00 00 00 00 00 00 a8 8b 2a   U..............*
0x022b0393  02 00 00 00 00 48 03 2b 02 00 00 00 00 35 94 f1   .....H.+.....5..
0x022b03a3  50 00 00 00 00 20 00 00 00 00 00 00 00 00 00 00   P...............
0x022b03b3  00 00 00 00 00 00 00 00 00 00 00 00 00 f7 03 55   ...............U
0x022b03c3  55 25 00 00 00 31 39 32 2e 31 36 38 2e 31 30 2e   U%...192.168.10.
0x022b03d3  32 30 30 20 34 37 39 33 38 20 31 39 32 2e 31 36   200.47938.192.16
0x022b03e3  38 2e 31 30 2e 32 20 32 32 00 25 00 00 00 00 00   8.10.2.22.%.....
0x022b03f3  00 00 00 00 00 00 00 00 00 00 00 00 00 f7 03 55   ...............U
0x022b0403  55 34 00 00 00 53 53 48 5f 43 4f 4e 4e 45 43 54   U4...SSH_CONNECT
Task: bash pid 2367 rule r1 addr 0x22b03c8
0x022b03c8  31 39 32 2e 31 36 38 2e 31 30 2e 32 30 30 20 34   192.168.10.200.4
0x022b03d8  37 39 33 38 20 31 39 32 2e 31 36 38 2e 31 30 2e   7938.192.168.10.
0x022b03e8  32 20 32 32 00 25 00 00 00 00 00 00 00 00 00 00   2.22.%..........
0x022b03f8  00 00 00 00 00 00 00 00 f7 03 55 55 34 00 00 00   ..........UU4...
0x022b0408  53 53 48 5f 43 4f 4e 4e 45 43 54 49 4f 4e 3d 31   SSH_CONNECTION=1
0x022b0418  39 32 2e 31 36 38 2e 31 30 2e 32 30 30 20 34 37   92.168.10.200.47
0x022b0428  39 33 38 20 31 39 32 2e 31 36 38 2e 31 30 2e 32   938.192.168.10.2
0x022b0438  20 32 32 00 34 00 00 00 f7 03 55 55 30 00 00 00   .22.4.....UU0...
0x022b0448  c8 8b 2a 02 00 00 00 00 08 8c 2a 02 00 00 00 00   ..*.......*.....
0x022b0458  28 8c 2a 02 00 00 00 00 00 00 00 00 00 00 00 00   (.*.............
0x022b0468  00 00 00 00 00 00 00 00 01 80 00 00 00 00 00 00   ................
0x022b0478  30 00 00 00 00 00 00 00 f7 03 55 55 20 00 00 00   0.........UU....
0x022b0488  00 00 00 00 00 00 00 00 e8 8b 2a 02 00 00 00 00   ..........*.....
0x022b0498  48 04 2b 02 00 00 00 00 8e ca 12 70 00 00 00 00   H.+........p....
0x022b04a8  20 00 00 00 00 00 00 00 00 00 00 00 00 00 00 00   ................
0x022b04b8  00 00 00 00 00 00 00 00 f7 03 55 55 30 00 00 00   ..........UU0...
Task: bash pid 2367 rule r1 addr 0x22b03dd
0x022b03dd  31 39 32 2e 31 36 38 2e 31 30 2e 32 20 32 32 00   192.168.10.2.22.
0x022b03ed  25 00 00 00 00 00 00 00 00 00 00 00 00 00 00 00   %...............
0x022b03fd  00 00 00 f7 03 55 55 34 00 00 00 53 53 48 5f 43   .....UU4...SSH_C
0x022b040d  4f 4e 4e 45 43 54 49 4f 4e 3d 31 39 32 2e 31 36   ONNECTION=192.16
0x022b041d  38 2e 31 30 2e 32 30 30 20 34 37 39 33 38 20 31   8.10.200.47938.1
0x022b042d  39 32 2e 31 36 38 2e 31 30 2e 32 20 32 32 00 34   92.168.10.2.22.4
0x022b043d  00 00 00 f7 03 55 55 30 00 00 00 c8 8b 2a 02 00   .....UU0.....*..
0x022b044d  00 00 00 08 8c 2a 02 00 00 00 00 28 8c 2a 02 00   .....*.....(.*..
0x022b045d  00 00 00 00 00 00 00 00 00 00 00 00 00 00 00 00   ................
0x022b046d  00 00 00 01 80 00 00 00 00 00 00 30 00 00 00 00   ...........0....
0x022b047d  00 00 00 f7 03 55 55 20 00 00 00 00 00 00 00 00   .....UU.........
0x022b048d  00 00 00 e8 8b 2a 02 00 00 00 00 48 04 2b 02 00   .....*.....H.+..
0x022b049d  00 00 00 8e ca 12 70 00 00 00 00 20 00 00 00 00   ......p.........
0x022b04ad  00 00 00 00 00 00 00 00 00 00 00 00 00 00 00 00   ................
0x022b04bd  00 00 00 f7 03 55 55 30 00 00 00 48 8c 2a 02 00   .....UU0...H.*..
0x022b04cd  00 00 00 88 8c 2a 02 00 00 00 00 a8 8c 2a 02 00   .....*.......*..
Task: bash pid 2367 rule r1 addr 0x22b0417
0x022b0417  31 39 32 2e 31 36 38 2e 31 30 2e 32 30 30 20 34   192.168.10.200.4
0x022b0427  37 39 33 38 20 31 39 32 2e 31 36 38 2e 31 30 2e   7938.192.168.10.
0x022b0437  32 20 32 32 00 34 00 00 00 f7 03 55 55 30 00 00   2.22.4.....UU0..
0x022b0447  00 c8 8b 2a 02 00 00 00 00 08 8c 2a 02 00 00 00   ...*.......*....
0x022b0457  00 28 8c 2a 02 00 00 00 00 00 00 00 00 00 00 00   .(.*............
0x022b0467  00 00 00 00 00 00 00 00 00 01 80 00 00 00 00 00   ................
0x022b0477  00 30 00 00 00 00 00 00 00 f7 03 55 55 20 00 00   .0.........UU...
0x022b0487  00 00 00 00 00 00 00 00 00 e8 8b 2a 02 00 00 00   ...........*....
0x022b0497  00 48 04 2b 02 00 00 00 00 8e ca 12 70 00 00 00   .H.+........p...
0x022b04a7  00 20 00 00 00 00 00 00 00 00 00 00 00 00 00 00   ................
0x022b04b7  00 00 00 00 00 00 00 00 00 f7 03 55 55 30 00 00   ...........UU0..
0x022b04c7  00 48 8c 2a 02 00 00 00 00 88 8c 2a 02 00 00 00   .H.*.......*....
0x022b04d7  00 a8 8c 2a 02 00 00 00 00 00 00 00 00 00 00 00   ...*............
0x022b04e7  00 00 00 00 00 00 00 00 00 01 80 00 00 00 00 00   ................
0x022b04f7  00 30 00 00 00 00 00 00 00 f7 03 55 55 20 00 00   .0.........UU...
0x022b0507  00 08 02 2b 02 00 00 00 00 68 8c 2a 02 00 00 00   ...+.....h.*....
Task: bash pid 2367 rule r1 addr 0x22b042c
0x022b042c  31 39 32 2e 31 36 38 2e 31 30 2e 32 20 32 32 00   192.168.10.2.22.
0x022b043c  34 00 00 00 f7 03 55 55 30 00 00 00 c8 8b 2a 02   4.....UU0.....*.
0x022b044c  00 00 00 00 08 8c 2a 02 00 00 00 00 28 8c 2a 02   ......*.....(.*.
0x022b045c  00 00 00 00 00 00 00 00 00 00 00 00 00 00 00 00   ................
0x022b046c  00 00 00 00 01 80 00 00 00 00 00 00 30 00 00 00   ............0...
0x022b047c  00 00 00 00 f7 03 55 55 20 00 00 00 00 00 00 00   ......UU........
0x022b048c  00 00 00 00 e8 8b 2a 02 00 00 00 00 48 04 2b 02   ......*.....H.+.
0x022b049c  00 00 00 00 8e ca 12 70 00 00 00 00 20 00 00 00   .......p........
0x022b04ac  00 00 00 00 00 00 00 00 00 00 00 00 00 00 00 00   ................
0x022b04bc  00 00 00 00 f7 03 55 55 30 00 00 00 48 8c 2a 02   ......UU0...H.*.
0x022b04cc  00 00 00 00 88 8c 2a 02 00 00 00 00 a8 8c 2a 02   ......*.......*.
0x022b04dc  00 00 00 00 00 00 00 00 00 00 00 00 00 00 00 00   ................
0x022b04ec  00 00 00 00 01 80 00 00 00 00 00 00 30 00 00 00   ............0...
0x022b04fc  00 00 00 00 f7 03 55 55 20 00 00 00 08 02 2b 02   ......UU......+.
0x022b050c  00 00 00 00 68 8c 2a 02 00 00 00 00 c8 04 2b 02   ....h.*.......+.
0x022b051c  00 00 00 00 c6 7e 49 60 06 00 00 00 20 00 00 00   .....~I`........
Task: bash pid 2367 rule r1 addr 0x22b3bd3
0x022b3bd3  31 39 32 2e 31 36 38 2e 31 30 2e 32 30 30 20 34   192.168.10.200.4
0x022b3be3  37 39 33 38 20 32 32 00 23 00 00 00 00 00 00 00   7938.22.#.......
0x022b3bf3  00 00 00 00 00 00 00 00 00 00 00 00 00 f7 03 55   ...............U
0x022b3c03  55 17 00 00 00 4c 43 5f 4e 55 4d 45 52 49 43 3d   U....LC_NUMERIC=
0x022b3c13  65 73 5f 45 53 2e 55 54 46 2d 38 00 17 00 00 00   es_ES.UTF-8.....
0x022b3c23  1b 00 00 00 00 00 00 00 00 00 00 00 00 00 00 00   ................
0x022b3c33  00 00 00 00 00 00 00 00 00 00 00 00 00 f7 02 55   ...............U
0x022b3c43  55 13 00 00 00 53 53 48 5f 54 54 59 3d 2f 64 65   U....SSH_TTY=/de
0x022b3c53  76 2f 70 74 73 2f 30 00 13 00 00 00 00 f7 02 55   v/pts/0........U
0x022b3c63  55 0f 00 00 00 55 53 45 52 3d 75 6f 63 6f 6e 74   U....USER=uocont
0x022b3c73  72 6f 6c 00 0f 00 00 00 00 00 00 00 00 f7 03 55   rol............U
0x022b3c83  55 19 00 00 00 4c 43 5f 54 45 4c 45 50 48 4f 4e   U....LC_TELEPHON
0x022b3c93  45 3d 65 73 5f 45 53 2e 55 54 46 2d 38 00 19 00   E=es_ES.UTF-8...
0x022b3ca3  00 00 cf 1e 00 00 00 00 00 00 00 00 00 00 00 00   ................
0x022b3cb3  00 00 00 00 00 00 00 00 00 00 00 00 00 f7 03 55   ...............U
0x022b3cc3  55 19 00 00 00 4d 41 49 4c 3d 2f 76 61 72 2f 6d   U....MAIL=/var/m
Task: bash pid 2367 rule r1 addr 0x22b3e97
0x022b3e97  31 39 32 2e 31 36 38 2e 31 30 2e 32 30 30 20 34   192.168.10.200.4
0x022b3ea7  37 39 33 38 20 31 39 32 2e 31 36 38 2e 31 30 2e   7938.192.168.10.
0x022b3eb7  32 20 32 32 00 34 00 00 00 f7 02 55 55 14 00 00   2.22.4.....UU...
0x022b3ec7  00 4c 43 5f 54 49 4d 45 3d 65 73 5f 45 53 2e 55   .LC_TIME=es_ES.U
0x022b3ed7  54 46 2d 38 00 14 00 00 00 f7 02 55 55 14 00 00   TF-8.......UU...
0x022b3ee7  00 4c 43 5f 4e 41 4d 45 3d 65 73 5f 45 53 2e 55   .LC_NAME=es_ES.U
0x022b3ef7  54 46 2d 38 00 14 00 00 00 f7 02 55 55 0c 00 00   TF-8.......UU...
0x022b3f07  00 65 73 5f 45 53 2e 55 54 46 2d 38 00 0c 00 00   .es_ES.UTF-8....
0x022b3f17  00 00 00 00 00 00 00 00 00 f7 02 55 55 0c 00 00   ...........UU...
0x022b3f27  00 65 73 5f 45 53 2e 55 54 46 2d 38 00 0c 00 00   .es_ES.UTF-8....
0x022b3f37  00 00 00 00 00 00 00 00 00 54 03 55 55 20 00 00   .........T.UU...
0x022b3f47  00 c0 3f 2b 02 00 00 00 00 cf cf cf cf cf cf cf   ..?+............
0x022b3f57  cf cf cf cf cf cf cf cf cf cf cf cf cf cf cf cf   ................
0x022b3f67  cf 20 00 00 00 00 00 00 00 00 00 00 00 00 00 00   ................
0x022b3f77  00 00 00 00 00 00 00 00 00 f7 02 55 55 10 00 00   ...........UU...
0x022b3f87  00 50 05 4b 00 00 00 00 00 40 36 46 00 00 00 00   .P.K.....@6F....
Task: bash pid 2367 rule r1 addr 0x22b3eac
0x022b3eac  31 39 32 2e 31 36 38 2e 31 30 2e 32 20 32 32 00   192.168.10.2.22.
0x022b3ebc  34 00 00 00 f7 02 55 55 14 00 00 00 4c 43 5f 54   4.....UU....LC_T
0x022b3ecc  49 4d 45 3d 65 73 5f 45 53 2e 55 54 46 2d 38 00   IME=es_ES.UTF-8.
0x022b3edc  14 00 00 00 f7 02 55 55 14 00 00 00 4c 43 5f 4e   ......UU....LC_N
0x022b3eec  41 4d 45 3d 65 73 5f 45 53 2e 55 54 46 2d 38 00   AME=es_ES.UTF-8.
0x022b3efc  14 00 00 00 f7 02 55 55 0c 00 00 00 65 73 5f 45   ......UU....es_E
0x022b3f0c  53 2e 55 54 46 2d 38 00 0c 00 00 00 00 00 00 00   S.UTF-8.........
0x022b3f1c  00 00 00 00 f7 02 55 55 0c 00 00 00 65 73 5f 45   ......UU....es_E
0x022b3f2c  53 2e 55 54 46 2d 38 00 0c 00 00 00 00 00 00 00   S.UTF-8.........
0x022b3f3c  00 00 00 00 54 03 55 55 20 00 00 00 c0 3f 2b 02   ....T.UU.....?+.
0x022b3f4c  00 00 00 00 cf cf cf cf cf cf cf cf cf cf cf cf   ................
0x022b3f5c  cf cf cf cf cf cf cf cf cf cf cf cf 20 00 00 00   ................
0x022b3f6c  00 00 00 00 00 00 00 00 00 00 00 00 00 00 00 00   ................
0x022b3f7c  00 00 00 00 f7 02 55 55 10 00 00 00 50 05 4b 00   ......UU....P.K.
0x022b3f8c  00 00 00 00 40 36 46 00 00 00 00 00 10 00 00 00   ....@6F.........
0x022b3f9c  00 00 00 00 f7 02 55 55 10 00 00 00 9e 05 4b 00   ......UU......K.
Task: bash pid 2367 rule r1 addr 0x7fff6dd24f2c
0x7fff6dd24f2c  31 39 32 2e 31 36 38 2e 31 30 2e 32 30 30 20 34   192.168.10.200.4
0x7fff6dd24f3c  37 39 33 38 20 32 32 00 53 53 48 5f 43 4f 4e 4e   7938.22.SSH_CONN
0x7fff6dd24f4c  45 43 54 49 4f 4e 3d 31 39 32 2e 31 36 38 2e 31   ECTION=192.168.1
0x7fff6dd24f5c  30 2e 32 30 30 20 34 37 39 33 38 20 31 39 32 2e   0.200.47938.192.
0x7fff6dd24f6c  31 36 38 2e 31 30 2e 32 20 32 32 00 53 53 48 5f   168.10.2.22.SSH_
0x7fff6dd24f7c  54 54 59 3d 2f 64 65 76 2f 70 74 73 2f 30 00 54   TTY=/dev/pts/0.T
0x7fff6dd24f8c  45 52 4d 3d 78 74 65 72 6d 2d 32 35 36 63 6f 6c   ERM=xterm-256col
0x7fff6dd24f9c  6f 72 00 58 44 47 5f 53 45 53 53 49 4f 4e 5f 43   or.XDG_SESSION_C
0x7fff6dd24fac  4f 4f 4b 49 45 3d 61 62 66 64 37 64 31 33 37 31   OOKIE=abfd7d1371
0x7fff6dd24fbc  34 39 65 37 64 34 32 38 64 33 33 61 30 61 30 30   49e7d428d33a0a00
0x7fff6dd24fcc  30 30 30 31 33 66 2d 31 35 39 33 37 35 38 36 38   00013f-159375868
0x7fff6dd24fdc  39 2e 35 39 34 30 39 34 2d 38 38 33 36 32 36 39   9.594094-8836269
0x7fff6dd24fec  32 00 2f 62 69 6e 2f 62 61 73 68 00 00 00 00 00   2./bin/bash.....
0x7fff6dd24ffc  00 00 00 00 00 00 00 00 00 00 00 00 00 00 00 00   ................
0x7fff6dd2500c  00 00 00 00 00 00 00 00 00 00 00 00 00 00 00 00   ................
0x7fff6dd2501c  00 00 00 00 00 00 00 00 00 00 00 00 00 00 00 00   ................
Task: bash pid 2367 rule r1 addr 0x7fff6dd24f53
0x7fff6dd24f53  31 39 32 2e 31 36 38 2e 31 30 2e 32 30 30 20 34   192.168.10.200.4
0x7fff6dd24f63  37 39 33 38 20 31 39 32 2e 31 36 38 2e 31 30 2e   7938.192.168.10.
0x7fff6dd24f73  32 20 32 32 00 53 53 48 5f 54 54 59 3d 2f 64 65   2.22.SSH_TTY=/de
0x7fff6dd24f83  76 2f 70 74 73 2f 30 00 54 45 52 4d 3d 78 74 65   v/pts/0.TERM=xte
0x7fff6dd24f93  72 6d 2d 32 35 36 63 6f 6c 6f 72 00 58 44 47 5f   rm-256color.XDG_
0x7fff6dd24fa3  53 45 53 53 49 4f 4e 5f 43 4f 4f 4b 49 45 3d 61   SESSION_COOKIE=a
0x7fff6dd24fb3  62 66 64 37 64 31 33 37 31 34 39 65 37 64 34 32   bfd7d137149e7d42
0x7fff6dd24fc3  38 64 33 33 61 30 61 30 30 30 30 30 31 33 66 2d   8d33a0a0000013f-
0x7fff6dd24fd3  31 35 39 33 37 35 38 36 38 39 2e 35 39 34 30 39   1593758689.59409
0x7fff6dd24fe3  34 2d 38 38 33 36 32 36 39 32 00 2f 62 69 6e 2f   4-88362692./bin/
0x7fff6dd24ff3  62 61 73 68 00 00 00 00 00 00 00 00 00 00 00 00   bash............
0x7fff6dd25003  00 00 00 00 00 00 00 00 00 00 00 00 00 00 00 00   ................
0x7fff6dd25013  00 00 00 00 00 00 00 00 00 00 00 00 00 00 00 00   ................
0x7fff6dd25023  00 00 00 00 00 00 00 00 00 00 00 00 00 00 00 00   ................
0x7fff6dd25033  00 00 00 00 00 00 00 00 00 00 00 00 00 00 00 00   ................
0x7fff6dd25043  00 00 00 00 00 00 00 00 00 00 00 00 00 00 00 00   ................
Task: bash pid 2367 rule r1 addr 0x7fff6dd24f68
0x7fff6dd24f68  31 39 32 2e 31 36 38 2e 31 30 2e 32 20 32 32 00   192.168.10.2.22.
0x7fff6dd24f78  53 53 48 5f 54 54 59 3d 2f 64 65 76 2f 70 74 73   SSH_TTY=/dev/pts
0x7fff6dd24f88  2f 30 00 54 45 52 4d 3d 78 74 65 72 6d 2d 32 35   /0.TERM=xterm-25
0x7fff6dd24f98  36 63 6f 6c 6f 72 00 58 44 47 5f 53 45 53 53 49   6color.XDG_SESSI
0x7fff6dd24fa8  4f 4e 5f 43 4f 4f 4b 49 45 3d 61 62 66 64 37 64   ON_COOKIE=abfd7d
0x7fff6dd24fb8  31 33 37 31 34 39 65 37 64 34 32 38 64 33 33 61   137149e7d428d33a
0x7fff6dd24fc8  30 61 30 30 30 30 30 31 33 66 2d 31 35 39 33 37   0a0000013f-15937
0x7fff6dd24fd8  35 38 36 38 39 2e 35 39 34 30 39 34 2d 38 38 33   58689.594094-883
0x7fff6dd24fe8  36 32 36 39 32 00 2f 62 69 6e 2f 62 61 73 68 00   62692./bin/bash.
0x7fff6dd24ff8  00 00 00 00 00 00 00 00 00 00 00 00 00 00 00 00   ................
0x7fff6dd25008  00 00 00 00 00 00 00 00 00 00 00 00 00 00 00 00   ................
0x7fff6dd25018  00 00 00 00 00 00 00 00 00 00 00 00 00 00 00 00   ................
0x7fff6dd25028  00 00 00 00 00 00 00 00 00 00 00 00 00 00 00 00   ................
0x7fff6dd25038  00 00 00 00 00 00 00 00 00 00 00 00 00 00 00 00   ................
0x7fff6dd25048  00 00 00 00 00 00 00 00 00 00 00 00 00 00 00 00   ................
0x7fff6dd25058  00 00 00 00 00 00 00 00 00 00 00 00 00 00 00 00   ................
Task: sshd pid 2465 rule r1 addr 0x7f2e17d1d4a5
0x7f2e17d1d4a5  31 39 32 2e 31 36 38 2e 31 30 2e 32 0a 20 20 53   192.168.10.2...S
0x7f2e17d1d4b5  77 61 70 20 75 73 61 67 65 3a 20 20 20 30 25 0a   wap.usage:...0%.
0x7f2e17d1d4c5  0a 20 20 47 72 61 70 68 20 74 68 69 73 20 64 61   ...Graph.this.da
0x7f2e17d1d4d5  74 61 20 61 6e 64 20 6d 61 6e 61 67 65 20 74 68   ta.and.manage.th
0x7f2e17d1d4e5  69 73 20 73 79 73 74 65 6d 20 61 74 3a 0a 20 20   is.system.at:...
0x7f2e17d1d4f5  20 20 68 74 74 70 73 3a 2f 2f 6c 61 6e 64 73 63   ..https://landsc
0x7f2e17d1d505  61 70 65 2e 63 61 6e 6f 6e 69 63 61 6c 2e 63 6f   ape.canonical.co
0x7f2e17d1d515  6d 2f 0a 0a 4e 65 77 20 72 65 6c 65 61 73 65 20   m/..New.release.
0x7f2e17d1d525  27 31 34 2e 30 34 2e 36 20 4c 54 53 27 20 61 76   '14.04.6.LTS'.av
0x7f2e17d1d535  61 69 6c 61 62 6c 65 2e 0a 52 75 6e 20 27 64 6f   ailable..Run.'do
0x7f2e17d1d545  2d 72 65 6c 65 61 73 65 2d 75 70 67 72 61 64 65   -release-upgrade
0x7f2e17d1d555  27 20 74 6f 20 75 70 67 72 61 64 65 20 74 6f 20   '.to.upgrade.to.
0x7f2e17d1d565  69 74 2e 0a 0a 0a 59 6f 75 72 20 48 61 72 64 77   it....Your.Hardw
0x7f2e17d1d575  61 72 65 20 45 6e 61 62 6c 65 6d 65 6e 74 20 53   are.Enablement.S
0x7f2e17d1d585  74 61 63 6b 20 28 48 57 45 29 20 69 73 20 73 75   tack.(HWE).is.su
0x7f2e17d1d595  70 70 6f 72 74 65 64 20 75 6e 74 69 6c 20 41 70   pported.until.Ap
Task: sshd pid 2465 rule r1 addr 0x7f2e17d45e85
0x7f2e17d45e85  31 39 32 2e 31 36 38 2e 31 30 2e 32 0a 20 20 53   192.168.10.2...S
0x7f2e17d45e95  77 61 70 20 75 73 61 67 65 3a 20 20 20 30 25 0a   wap.usage:...0%.
0x7f2e17d45ea5  0a 20 20 47 72 61 70 68 20 74 68 69 73 20 64 61   ...Graph.this.da
0x7f2e17d45eb5  74 61 20 61 6e 64 20 6d 61 6e 61 67 65 20 74 68   ta.and.manage.th
0x7f2e17d45ec5  69 73 20 73 79 73 74 65 6d 20 61 74 3a 0a 20 20   is.system.at:...
0x7f2e17d45ed5  20 20 68 74 74 70 73 3a 2f 2f 6c 61 6e 64 73 63   ..https://landsc
0x7f2e17d45ee5  61 70 65 2e 63 61 6e 6f 6e 69 63 61 6c 2e 63 6f   ape.canonical.co
0x7f2e17d45ef5  6d 2f 0a 0a 4e 65 77 20 72 65 6c 65 61 73 65 20   m/..New.release.
0x7f2e17d45f05  27 31 34 2e 30 34 2e 36 20 4c 54 53 27 20 61 76   '14.04.6.LTS'.av
0x7f2e17d45f15  61 69 6c 61 62 6c 65 2e 0a 52 75 6e 20 27 64 6f   ailable..Run.'do
0x7f2e17d45f25  2d 72 65 6c 65 61 73 65 2d 75 70 67 72 61 64 65   -release-upgrade
0x7f2e17d45f35  27 20 74 6f 20 75 70 67 72 61 64 65 20 74 6f 20   '.to.upgrade.to.
0x7f2e17d45f45  69 74 2e 0a 0a 0a 59 6f 75 72 20 48 61 72 64 77   it....Your.Hardw
0x7f2e17d45f55  61 72 65 20 45 6e 61 62 6c 65 6d 65 6e 74 20 53   are.Enablement.S
0x7f2e17d45f65  74 61 63 6b 20 28 48 57 45 29 20 69 73 20 73 75   tack.(HWE).is.su
0x7f2e17d45f75  70 70 6f 72 74 65 64 20 75 6e 74 69 6c 20 41 70   pported.until.Ap
Task: sshd pid 2613 rule r1 addr 0x7f2e17d1d4a5
0x7f2e17d1d4a5  31 39 32 2e 31 36 38 2e 31 30 2e 32 0a 20 20 53   192.168.10.2...S
0x7f2e17d1d4b5  77 61 70 20 75 73 61 67 65 3a 20 20 20 30 25 0a   wap.usage:...0%.
0x7f2e17d1d4c5  0a 20 20 47 72 61 70 68 20 74 68 69 73 20 64 61   ...Graph.this.da
0x7f2e17d1d4d5  74 61 20 61 6e 64 20 6d 61 6e 61 67 65 20 74 68   ta.and.manage.th
0x7f2e17d1d4e5  69 73 20 73 79 73 74 65 6d 20 61 74 3a 0a 20 20   is.system.at:...
0x7f2e17d1d4f5  20 20 68 74 74 70 73 3a 2f 2f 6c 61 6e 64 73 63   ..https://landsc
0x7f2e17d1d505  61 70 65 2e 63 61 6e 6f 6e 69 63 61 6c 2e 63 6f   ape.canonical.co
0x7f2e17d1d515  6d 2f 0a 0a 4e 65 77 20 72 65 6c 65 61 73 65 20   m/..New.release.
0x7f2e17d1d525  27 31 34 2e 30 34 2e 36 20 4c 54 53 27 20 61 76   '14.04.6.LTS'.av
0x7f2e17d1d535  61 69 6c 61 62 6c 65 2e 0a 52 75 6e 20 27 64 6f   ailable..Run.'do
0x7f2e17d1d545  2d 72 65 6c 65 61 73 65 2d 75 70 67 72 61 64 65   -release-upgrade
0x7f2e17d1d555  27 20 74 6f 20 75 70 67 72 61 64 65 20 74 6f 20   '.to.upgrade.to.
0x7f2e17d1d565  69 74 2e 0a 0a 0a 59 6f 75 72 20 48 61 72 64 77   it....Your.Hardw
0x7f2e17d1d575  61 72 65 20 45 6e 61 62 6c 65 6d 65 6e 74 20 53   are.Enablement.S
0x7f2e17d1d585  74 61 63 6b 20 28 48 57 45 29 20 69 73 20 73 75   tack.(HWE).is.su
0x7f2e17d1d595  70 70 6f 72 74 65 64 20 75 6e 74 69 6c 20 41 70   pported.until.Ap
Task: sshd pid 2613 rule r1 addr 0x7f2e17d45e85
0x7f2e17d45e85  31 39 32 2e 31 36 38 2e 31 30 2e 32 0a 20 20 53   192.168.10.2...S
0x7f2e17d45e95  77 61 70 20 75 73 61 67 65 3a 20 20 20 30 25 0a   wap.usage:...0%.
0x7f2e17d45ea5  0a 20 20 47 72 61 70 68 20 74 68 69 73 20 64 61   ...Graph.this.da
0x7f2e17d45eb5  74 61 20 61 6e 64 20 6d 61 6e 61 67 65 20 74 68   ta.and.manage.th
0x7f2e17d45ec5  69 73 20 73 79 73 74 65 6d 20 61 74 3a 0a 20 20   is.system.at:...
0x7f2e17d45ed5  20 20 68 74 74 70 73 3a 2f 2f 6c 61 6e 64 73 63   ..https://landsc
0x7f2e17d45ee5  61 70 65 2e 63 61 6e 6f 6e 69 63 61 6c 2e 63 6f   ape.canonical.co
0x7f2e17d45ef5  6d 2f 0a 0a 4e 65 77 20 72 65 6c 65 61 73 65 20   m/..New.release.
0x7f2e17d45f05  27 31 34 2e 30 34 2e 36 20 4c 54 53 27 20 61 76   '14.04.6.LTS'.av
0x7f2e17d45f15  61 69 6c 61 62 6c 65 2e 0a 52 75 6e 20 27 64 6f   ailable..Run.'do
0x7f2e17d45f25  2d 72 65 6c 65 61 73 65 2d 75 70 67 72 61 64 65   -release-upgrade
0x7f2e17d45f35  27 20 74 6f 20 75 70 67 72 61 64 65 20 74 6f 20   '.to.upgrade.to.
0x7f2e17d45f45  69 74 2e 0a 0a 0a 59 6f 75 72 20 48 61 72 64 77   it....Your.Hardw
0x7f2e17d45f55  61 72 65 20 45 6e 61 62 6c 65 6d 65 6e 74 20 53   are.Enablement.S
0x7f2e17d45f65  74 61 63 6b 20 28 48 57 45 29 20 69 73 20 73 75   tack.(HWE).is.su
0x7f2e17d45f75  70 70 6f 72 74 65 64 20 75 6e 74 69 6c 20 41 70   pported.until.Ap
Task: sshd pid 2613 rule r1 addr 0x7f2e17d4777d
0x7f2e17d4777d  31 39 32 2e 31 36 38 2e 31 30 2e 32 0d 0a 20 20   192.168.10.2....
0x7f2e17d4778d  53 77 61 70 20 75 73 61 67 65 3a 20 20 20 30 25   Swap.usage:...0%
0x7f2e17d4779d  0d 0a 0d 0a 20 20 47 72 61 70 68 20 74 68 69 73   ......Graph.this
0x7f2e17d477ad  20 64 61 74 61 20 61 6e 64 20 6d 61 6e 61 67 65   .data.and.manage
0x7f2e17d477bd  20 74 68 69 73 20 73 79 73 74 65 6d 20 61 74 3a   .this.system.at:
0x7f2e17d477cd  0d 0a 20 20 20 20 68 74 74 70 73 3a 2f 2f 6c 61   ......https://la
0x7f2e17d477dd  6e 64 73 63 61 70 65 2e 63 61 6e 6f 6e 69 63 61   ndscape.canonica
0x7f2e17d477ed  6c 2e 63 6f 6d 2f 0d 0a 0d 0a 4e 65 77 20 72 65   l.com/....New.re
0x7f2e17d477fd  6c 65 61 73 65 20 27 31 34 2e 30 34 2e 36 20 4c   lease.'14.04.6.L
0x7f2e17d4780d  54 53 27 20 61 76 61 69 6c 61 62 6c 65 2e 0d 0a   TS'.available...
0x7f2e17d4781d  52 75 6e 20 27 64 6f 2d 72 65 6c 65 61 73 65 2d   Run.'do-release-
0x7f2e17d4782d  75 70 67 72 61 64 65 27 20 74 6f 20 75 70 67 72   upgrade'.to.upgr
0x7f2e17d4783d  61 64 65 20 74 6f 20 69 74 2e 0d 0a 0d 0a 0d 0a   ade.to.it.......
0x7f2e17d4784d  59 6f 75 72 20 48 61 72 64 77 61 72 65 20 45 6e   Your.Hardware.En
0x7f2e17d4785d  61 62 6c 65 6d 65 6e 74 20 53 74 61 63 6b 20 28   ablement.Stack.(
0x7f2e17d4786d  48 57 45 29 20 69 73 20 73 75 70 70 6f 72 74 65   HWE).is.supporte
Task: bash pid 2614 rule r1 addr 0xaa2d9a
0x00aa2d9a  31 39 32 2e 31 36 38 2e 31 30 2e 32 20 32 32 00   192.168.10.2.22.
0x00aa2daa  22 00 00 00 00 00 00 00 00 00 00 00 00 00 00 00   "...............
0x00aa2dba  00 00 00 00 00 00 f7 03 55 55 31 00 00 00 53 53   ........UU1...SS
0x00aa2dca  48 5f 43 4f 4e 4e 45 43 54 49 4f 4e 3d 38 38 2e   H_CONNECTION=88.
0x00aa2dda  31 2e 31 35 2e 31 31 30 20 36 31 36 36 34 20 31   1.15.110.61664.1
0x00aa2dea  39 32 2e 31 36 38 2e 31 30 2e 32 20 32 32 00 31   92.168.10.2.22.1
0x00aa2dfa  00 00 00 00 00 00 f7 03 55 55 30 00 00 00 28 b7   ........UU0...(.
0x00aa2e0a  a9 00 00 00 00 00 68 b7 a9 00 00 00 00 00 88 b7   ......h.........
0x00aa2e1a  a9 00 00 00 00 00 00 00 00 00 00 00 00 00 00 00   ................
0x00aa2e2a  00 00 00 00 00 00 01 80 00 00 00 00 00 00 30 00   ..............0.
0x00aa2e3a  00 00 00 00 00 00 f7 03 55 55 20 00 00 00 00 00   ........UU......
0x00aa2e4a  00 00 00 00 00 00 48 b7 a9 00 00 00 00 00 08 2e   ......H.........
0x00aa2e5a  aa 00 00 00 00 00 8e ca 12 70 00 00 00 00 20 00   .........p......
0x00aa2e6a  00 00 00 00 00 00 00 00 00 00 00 00 00 00 00 00   ................
0x00aa2e7a  00 00 00 00 00 00 f7 03 55 55 30 00 00 00 a8 b7   ........UU0.....
0x00aa2e8a  a9 00 00 00 00 00 e8 b7 a9 00 00 00 00 00 08 b8   ................
Task: bash pid 2614 rule r1 addr 0xaa2de9
0x00aa2de9  31 39 32 2e 31 36 38 2e 31 30 2e 32 20 32 32 00   192.168.10.2.22.
0x00aa2df9  31 00 00 00 00 00 00 f7 03 55 55 30 00 00 00 28   1........UU0...(
0x00aa2e09  b7 a9 00 00 00 00 00 68 b7 a9 00 00 00 00 00 88   .......h........
0x00aa2e19  b7 a9 00 00 00 00 00 00 00 00 00 00 00 00 00 00   ................
0x00aa2e29  00 00 00 00 00 00 00 01 80 00 00 00 00 00 00 30   ...............0
0x00aa2e39  00 00 00 00 00 00 00 f7 03 55 55 20 00 00 00 00   .........UU.....
0x00aa2e49  00 00 00 00 00 00 00 48 b7 a9 00 00 00 00 00 08   .......H........
0x00aa2e59  2e aa 00 00 00 00 00 8e ca 12 70 00 00 00 00 20   ..........p.....
0x00aa2e69  00 00 00 00 00 00 00 00 00 00 00 00 00 00 00 00   ................
0x00aa2e79  00 00 00 00 00 00 00 f7 03 55 55 30 00 00 00 a8   .........UU0....
0x00aa2e89  b7 a9 00 00 00 00 00 e8 b7 a9 00 00 00 00 00 08   ................
0x00aa2e99  b8 a9 00 00 00 00 00 00 00 00 00 00 00 00 00 00   ................
0x00aa2ea9  00 00 00 00 00 00 00 01 80 00 00 00 00 00 00 30   ...............0
0x00aa2eb9  00 00 00 00 00 00 00 f7 03 55 55 20 00 00 00 c8   .........UU.....
0x00aa2ec9  1f aa 00 00 00 00 00 c8 b7 a9 00 00 00 00 00 88   ................
0x00aa2ed9  2e aa 00 00 00 00 00 c6 7e 49 60 06 00 00 00 20   ........~I`.....
Task: bash pid 2614 rule r1 addr 0xaa7269
0x00aa7269  31 39 32 2e 31 36 38 2e 31 30 2e 32 20 32 32 00   192.168.10.2.22.
0x00aa7279  31 00 00 00 00 00 00 f7 02 55 55 0c 00 00 00 65   1........UU....e
0x00aa7289  73 5f 45 53 2e 55 54 46 2d 38 00 0c 00 00 00 00   s_ES.UTF-8......
0x00aa7299  00 00 00 00 00 00 00 f7 02 55 55 0c 00 00 00 65   .........UU....e
0x00aa72a9  73 5f 45 53 2e 55 54 46 2d 38 00 0c 00 00 00 00   s_ES.UTF-8......
0x00aa72b9  00 00 00 00 00 00 00 54 03 55 55 20 00 00 00 40   .......T.UU....@
0x00aa72c9  73 aa 00 00 00 00 00 cf cf cf cf cf cf cf cf cf   s...............
0x00aa72d9  cf cf cf cf cf cf cf cf cf cf cf cf cf cf cf 20   ................
0x00aa72e9  00 00 00 00 00 00 00 00 00 00 00 00 00 00 00 00   ................
0x00aa72f9  00 00 00 00 00 00 00 f7 02 55 55 10 00 00 00 50   .........UU....P
0x00aa7309  05 4b 00 00 00 00 00 40 36 46 00 00 00 00 00 10   .K.....@6F......
0x00aa7319  00 00 00 00 00 00 00 f7 02 55 55 10 00 00 00 9e   .........UU.....
0x00aa7329  05 4b 00 00 00 00 00 80 38 46 00 00 00 00 00 10   .K......8F......
0x00aa7339  00 00 00 00 00 00 00 54 03 55 55 20 00 00 00 00   .......T.UU.....
0x00aa7349  70 aa 00 00 00 00 00 cf cf cf cf cf cf cf cf cf   p...............
0x00aa7359  cf cf cf cf cf cf cf cf cf cf cf cf cf cf cf 20   ................
Task: bash pid 2614 rule r1 addr 0x7fff29f69f5e
0x7fff29f69f5e  31 39 32 2e 31 36 38 2e 31 30 2e 32 20 32 32 00   192.168.10.2.22.
0x7fff29f69f6e  53 53 48 5f 54 54 59 3d 2f 64 65 76 2f 70 74 73   SSH_TTY=/dev/pts
0x7fff29f69f7e  2f 31 00 54 45 52 4d 3d 78 74 65 72 6d 00 58 44   /1.TERM=xterm.XD
0x7fff29f69f8e  47 5f 53 45 53 53 49 4f 4e 5f 43 4f 4f 4b 49 45   G_SESSION_COOKIE
0x7fff29f69f9e  3d 61 62 66 64 37 64 31 33 37 31 34 39 65 37 64   =abfd7d137149e7d
0x7fff29f69fae  34 32 38 64 33 33 61 30 61 30 30 30 30 30 31 33   428d33a0a0000013
0x7fff29f69fbe  66 2d 31 35 39 33 37 35 38 38 38 30 2e 39 30 34   f-1593758880.904
0x7fff29f69fce  34 33 32 2d 31 30 35 33 35 31 33 31 38 37 00 4c   432-1053513187.L
0x7fff29f69fde  41 4e 47 3d 65 73 5f 45 53 2e 55 54 46 2d 38 00   ANG=es_ES.UTF-8.
0x7fff29f69fee  2f 62 69 6e 2f 62 61 73 68 00 00 00 00 00 00 00   /bin/bash.......
0x7fff29f69ffe  00 00 00 00 00 00 00 00 00 00 00 00 00 00 00 00   ................
0x7fff29f6a00e  00 00 00 00 00 00 00 00 00 00 00 00 00 00 00 00   ................
0x7fff29f6a01e  00 00 00 00 00 00 00 00 00 00 00 00 00 00 00 00   ................
0x7fff29f6a02e  00 00 00 00 00 00 00 00 00 00 00 00 00 00 00 00   ................
0x7fff29f6a03e  00 00 00 00 00 00 00 00 00 00 00 00 00 00 00 00   ................
0x7fff29f6a04e  00 00 00 00 00 00 00 00 00 00 00 00 00 00 00 00   ................
Task: sshd pid 2713 rule r1 addr 0x7fec631a04a5
0x7fec631a04a5  31 39 32 2e 31 36 38 2e 31 30 2e 32 0a 20 20 53   192.168.10.2...S
0x7fec631a04b5  77 61 70 20 75 73 61 67 65 3a 20 20 20 30 25 0a   wap.usage:...0%.
0x7fec631a04c5  0a 20 20 47 72 61 70 68 20 74 68 69 73 20 64 61   ...Graph.this.da
0x7fec631a04d5  74 61 20 61 6e 64 20 6d 61 6e 61 67 65 20 74 68   ta.and.manage.th
0x7fec631a04e5  69 73 20 73 79 73 74 65 6d 20 61 74 3a 0a 20 20   is.system.at:...
0x7fec631a04f5  20 20 68 74 74 70 73 3a 2f 2f 6c 61 6e 64 73 63   ..https://landsc
0x7fec631a0505  61 70 65 2e 63 61 6e 6f 6e 69 63 61 6c 2e 63 6f   ape.canonical.co
0x7fec631a0515  6d 2f 0a 0a 4e 65 77 20 72 65 6c 65 61 73 65 20   m/..New.release.
0x7fec631a0525  27 31 34 2e 30 34 2e 36 20 4c 54 53 27 20 61 76   '14.04.6.LTS'.av
0x7fec631a0535  61 69 6c 61 62 6c 65 2e 0a 52 75 6e 20 27 64 6f   ailable..Run.'do
0x7fec631a0545  2d 72 65 6c 65 61 73 65 2d 75 70 67 72 61 64 65   -release-upgrade
0x7fec631a0555  27 20 74 6f 20 75 70 67 72 61 64 65 20 74 6f 20   '.to.upgrade.to.
0x7fec631a0565  69 74 2e 0a 0a 0a 59 6f 75 72 20 48 61 72 64 77   it....Your.Hardw
0x7fec631a0575  61 72 65 20 45 6e 61 62 6c 65 6d 65 6e 74 20 53   are.Enablement.S
0x7fec631a0585  74 61 63 6b 20 28 48 57 45 29 20 69 73 20 73 75   tack.(HWE).is.su
0x7fec631a0595  70 70 6f 72 74 65 64 20 75 6e 74 69 6c 20 41 70   pported.until.Ap
Task: sshd pid 2713 rule r1 addr 0x7fec631c8ea5
0x7fec631c8ea5  31 39 32 2e 31 36 38 2e 31 30 2e 32 0a 20 20 53   192.168.10.2...S
0x7fec631c8eb5  77 61 70 20 75 73 61 67 65 3a 20 20 20 30 25 0a   wap.usage:...0%.
0x7fec631c8ec5  0a 20 20 47 72 61 70 68 20 74 68 69 73 20 64 61   ...Graph.this.da
0x7fec631c8ed5  74 61 20 61 6e 64 20 6d 61 6e 61 67 65 20 74 68   ta.and.manage.th
0x7fec631c8ee5  69 73 20 73 79 73 74 65 6d 20 61 74 3a 0a 20 20   is.system.at:...
0x7fec631c8ef5  20 20 68 74 74 70 73 3a 2f 2f 6c 61 6e 64 73 63   ..https://landsc
0x7fec631c8f05  61 70 65 2e 63 61 6e 6f 6e 69 63 61 6c 2e 63 6f   ape.canonical.co
0x7fec631c8f15  6d 2f 0a 0a 4e 65 77 20 72 65 6c 65 61 73 65 20   m/..New.release.
0x7fec631c8f25  27 31 34 2e 30 34 2e 36 20 4c 54 53 27 20 61 76   '14.04.6.LTS'.av
0x7fec631c8f35  61 69 6c 61 62 6c 65 2e 0a 52 75 6e 20 27 64 6f   ailable..Run.'do
0x7fec631c8f45  2d 72 65 6c 65 61 73 65 2d 75 70 67 72 61 64 65   -release-upgrade
0x7fec631c8f55  27 20 74 6f 20 75 70 67 72 61 64 65 20 74 6f 20   '.to.upgrade.to.
0x7fec631c8f65  69 74 2e 0a 0a 0a 59 6f 75 72 20 48 61 72 64 77   it....Your.Hardw
0x7fec631c8f75  61 72 65 20 45 6e 61 62 6c 65 6d 65 6e 74 20 53   are.Enablement.S
0x7fec631c8f85  74 61 63 6b 20 28 48 57 45 29 20 69 73 20 73 75   tack.(HWE).is.su
0x7fec631c8f95  70 70 6f 72 74 65 64 20 75 6e 74 69 6c 20 41 70   pported.until.Ap
Task: sshd pid 2861 rule r1 addr 0x7fec631a04a5
0x7fec631a04a5  31 39 32 2e 31 36 38 2e 31 30 2e 32 0a 20 20 53   192.168.10.2...S
0x7fec631a04b5  77 61 70 20 75 73 61 67 65 3a 20 20 20 30 25 0a   wap.usage:...0%.
0x7fec631a04c5  0a 20 20 47 72 61 70 68 20 74 68 69 73 20 64 61   ...Graph.this.da
0x7fec631a04d5  74 61 20 61 6e 64 20 6d 61 6e 61 67 65 20 74 68   ta.and.manage.th
0x7fec631a04e5  69 73 20 73 79 73 74 65 6d 20 61 74 3a 0a 20 20   is.system.at:...
0x7fec631a04f5  20 20 68 74 74 70 73 3a 2f 2f 6c 61 6e 64 73 63   ..https://landsc
0x7fec631a0505  61 70 65 2e 63 61 6e 6f 6e 69 63 61 6c 2e 63 6f   ape.canonical.co
0x7fec631a0515  6d 2f 0a 0a 4e 65 77 20 72 65 6c 65 61 73 65 20   m/..New.release.
0x7fec631a0525  27 31 34 2e 30 34 2e 36 20 4c 54 53 27 20 61 76   '14.04.6.LTS'.av
0x7fec631a0535  61 69 6c 61 62 6c 65 2e 0a 52 75 6e 20 27 64 6f   ailable..Run.'do
0x7fec631a0545  2d 72 65 6c 65 61 73 65 2d 75 70 67 72 61 64 65   -release-upgrade
0x7fec631a0555  27 20 74 6f 20 75 70 67 72 61 64 65 20 74 6f 20   '.to.upgrade.to.
0x7fec631a0565  69 74 2e 0a 0a 0a 59 6f 75 72 20 48 61 72 64 77   it....Your.Hardw
0x7fec631a0575  61 72 65 20 45 6e 61 62 6c 65 6d 65 6e 74 20 53   are.Enablement.S
0x7fec631a0585  74 61 63 6b 20 28 48 57 45 29 20 69 73 20 73 75   tack.(HWE).is.su
0x7fec631a0595  70 70 6f 72 74 65 64 20 75 6e 74 69 6c 20 41 70   pported.until.Ap
Task: sshd pid 2861 rule r1 addr 0x7fec631c8ea5
0x7fec631c8ea5  31 39 32 2e 31 36 38 2e 31 30 2e 32 0a 20 20 53   192.168.10.2...S
0x7fec631c8eb5  77 61 70 20 75 73 61 67 65 3a 20 20 20 30 25 0a   wap.usage:...0%.
0x7fec631c8ec5  0a 20 20 47 72 61 70 68 20 74 68 69 73 20 64 61   ...Graph.this.da
0x7fec631c8ed5  74 61 20 61 6e 64 20 6d 61 6e 61 67 65 20 74 68   ta.and.manage.th
0x7fec631c8ee5  69 73 20 73 79 73 74 65 6d 20 61 74 3a 0a 20 20   is.system.at:...
0x7fec631c8ef5  20 20 68 74 74 70 73 3a 2f 2f 6c 61 6e 64 73 63   ..https://landsc
0x7fec631c8f05  61 70 65 2e 63 61 6e 6f 6e 69 63 61 6c 2e 63 6f   ape.canonical.co
0x7fec631c8f15  6d 2f 0a 0a 4e 65 77 20 72 65 6c 65 61 73 65 20   m/..New.release.
0x7fec631c8f25  27 31 34 2e 30 34 2e 36 20 4c 54 53 27 20 61 76   '14.04.6.LTS'.av
0x7fec631c8f35  61 69 6c 61 62 6c 65 2e 0a 52 75 6e 20 27 64 6f   ailable..Run.'do
0x7fec631c8f45  2d 72 65 6c 65 61 73 65 2d 75 70 67 72 61 64 65   -release-upgrade
0x7fec631c8f55  27 20 74 6f 20 75 70 67 72 61 64 65 20 74 6f 20   '.to.upgrade.to.
0x7fec631c8f65  69 74 2e 0a 0a 0a 59 6f 75 72 20 48 61 72 64 77   it....Your.Hardw
0x7fec631c8f75  61 72 65 20 45 6e 61 62 6c 65 6d 65 6e 74 20 53   are.Enablement.S
0x7fec631c8f85  74 61 63 6b 20 28 48 57 45 29 20 69 73 20 73 75   tack.(HWE).is.su
0x7fec631c8f95  70 70 6f 72 74 65 64 20 75 6e 74 69 6c 20 41 70   pported.until.Ap
Task: sftp-server pid 2862 rule r1 addr 0x7f85b67496d2
0x7f85b67496d2  31 39 32 2e 31 36 38 2e 31 30 2e 32 20 32 32 00   192.168.10.2.22.
0x7f85b67496e2  00 00 00 00 00 00 41 00 00 00 00 00 00 00 30 97   ......A.......0.
0x7f85b67496f2  74 b6 85 7f 00 00 50 97 74 b6 85 7f 00 00 e8 03   t.....P.t.......
0x7f85b6749702  00 00 e8 03 00 00 70 97 74 b6 85 7f 00 00 a0 97   ......p.t.......
0x7f85b6749712  74 b6 85 7f 00 00 c0 97 74 b6 85 7f 00 00 00 00   t.......t.......
0x7f85b6749722  00 00 00 00 00 00 21 00 00 00 00 00 00 00 75 6f   ......!.......uo
0x7f85b6749732  63 6f 6e 74 72 6f 6c 00 00 00 00 00 00 00 90 97   control.........
0x7f85b6749742  74 b6 85 7f 00 00 21 00 00 00 00 00 00 00 78 00   t.....!.......x.
0x7f85b6749752  00 00 00 00 00 00 00 00 00 00 00 00 00 00 ff ff   ................
0x7f85b6749762  ff ff 00 00 00 00 31 00 00 00 00 00 00 00 41 64   ......1.......Ad
0x7f85b6749772  6d 69 6e 69 73 74 72 61 64 6f 72 20 55 4f 43 6f   ministrador.UOCo
0x7f85b6749782  6e 74 72 6f 6c 2c 2c 2c 00 00 00 00 00 00 00 00   ntrol,,,........
0x7f85b6749792  00 00 00 00 00 00 21 00 00 00 00 00 00 00 2f 68   ......!......./h
0x7f85b67497a2  6f 6d 65 2f 75 6f 63 6f 6e 74 72 6f 6c 00 00 00   ome/uocontrol...
0x7f85b67497b2  00 00 00 00 00 00 21 00 00 00 00 00 00 00 2f 62   ......!......./b
0x7f85b67497c2  69 6e 2f 62 61 73 68 00 00 00 00 00 00 00 00 00   in/bash.........
Task: sftp-server pid 2862 rule r1 addr 0x7fffb2725fac
0x7fffb2725fac  31 39 32 2e 31 36 38 2e 31 30 2e 32 20 32 32 00   192.168.10.2.22.
0x7fffb2725fbc  5f 3d 2f 75 73 72 2f 6c 69 62 2f 6f 70 65 6e 73   _=/usr/lib/opens
0x7fffb2725fcc  73 68 2f 73 66 74 70 2d 73 65 72 76 65 72 00 2f   sh/sftp-server./
0x7fffb2725fdc  75 73 72 2f 6c 69 62 2f 6f 70 65 6e 73 73 68 2f   usr/lib/openssh/
0x7fffb2725fec  73 66 74 70 2d 73 65 72 76 65 72 00 00 00 00 00   sftp-server.....
0x7fffb2725ffc  00 00 00 00 00 00 00 00 00 00 00 00 00 00 00 00   ................
0x7fffb272600c  00 00 00 00 00 00 00 00 00 00 00 00 00 00 00 00   ................
0x7fffb272601c  00 00 00 00 00 00 00 00 00 00 00 00 00 00 00 00   ................
0x7fffb272602c  00 00 00 00 00 00 00 00 00 00 00 00 00 00 00 00   ................
0x7fffb272603c  00 00 00 00 00 00 00 00 00 00 00 00 00 00 00 00   ................
0x7fffb272604c  00 00 00 00 00 00 00 00 00 00 00 00 00 00 00 00   ................
0x7fffb272605c  00 00 00 00 00 00 00 00 00 00 00 00 00 00 00 00   ................
0x7fffb272606c  00 00 00 00 00 00 00 00 00 00 00 00 00 00 00 00   ................
0x7fffb272607c  00 00 00 00 00 00 00 00 00 00 00 00 00 00 00 00   ................
0x7fffb272608c  00 00 00 00 00 00 00 00 00 00 00 00 00 00 00 00   ................
0x7fffb272609c  00 00 00 00 00 00 00 00 00 00 00 00 00 00 00 00   ................
Task: smbd pid 2928 rule r1 addr 0x7f23c26c2d20
0x7f23c26c2d20  31 39 32 2e 31 36 38 2e 31 30 2e 32 30 30 00 00   192.168.10.200..
0x7f23c26c2d30  f0 00 00 00 00 00 00 00 c0 00 00 00 00 00 00 00   ................
0x7f23c26c2d40  a0 27 6c c2 23 7f 00 00 60 3d 6c c2 23 7f 00 00   .'l.#...`=l.#...
0x7f23c26c2d50  00 00 00 00 00 00 00 00 f0 2b 6c c2 23 7f 00 00   .........+l.#...
0x7f23c26c2d60  00 00 00 00 00 00 00 00 00 00 00 00 00 00 00 00   ................
0x7f23c26c2d70  ae f7 9d c1 23 7f 00 00 60 00 00 00 00 00 00 00   ....#...`.......
0x7f23c26c2d80  70 0c 15 e8 00 00 00 00 00 00 00 00 00 00 00 00   p...............
0x7f23c26c2d90  30 69 5f c1 23 7f 00 00 d0 64 5f c1 23 7f 00 00   0i_.#....d_.#...
0x7f23c26c2da0  e0 65 5f c1 23 7f 00 00 70 65 5f c1 23 7f 00 00   .e_.#...pe_.#...
0x7f23c26c2db0  50 64 5f c1 23 7f 00 00 20 64 5f c1 23 7f 00 00   Pd_.#....d_.#...
0x7f23c26c2dc0  f0 63 5f c1 23 7f 00 00 c0 63 5f c1 23 7f 00 00   .c_.#....c_.#...
0x7f23c26c2dd0  90 63 5f c1 23 7f 00 00 80 64 5f c1 23 7f 00 00   .c_.#....d_.#...
0x7f23c26c2de0  40 2c 6c c2 23 7f 00 00 00 00 00 00 00 00 00 00   @,l.#...........
0x7f23c26c2df0  00 00 00 00 00 00 00 00 61 00 00 00 00 00 00 00   ........a.......
0x7f23c26c2e00  00 00 00 00 00 00 00 00 00 00 00 00 00 00 00 00   ................
0x7f23c26c2e10  f0 2b 6c c2 23 7f 00 00 60 2e 6c c2 23 7f 00 00   .+l.#...`.l.#...
Task: smbd pid 2931 rule r1 addr 0x7f23c10db0d4
0x7f23c10db0d4  31 39 32 2e 31 36 38 2e 31 30 2e 32 30 30 00 00   192.168.10.200..
0x7f23c10db0e4  00 00 00 00 00 00 00 00 75 6f 63 6f 6e 74 72 6f   ........uocontro
0x7f23c10db0f4  6c 63 6c 69 65 6e 74 65 2d 70 63 00 00 00 00 00   lcliente-pc.....
0x7f23c10db104  00 00 00 00 00 00 00 00 00 00 00 00 00 00 00 00   ................
0x7f23c10db114  00 00 00 00 00 00 00 00 00 00 00 00 00 00 00 00   ................
0x7f23c10db124  00 00 00 00 00 00 00 00 00 00 00 00 00 00 00 00   ................
0x7f23c10db134  00 00 00 00 00 00 00 00 00 00 00 00 00 00 00 00   ................
0x7f23c10db144  00 00 00 00 00 00 00 00 00 00 00 00 00 00 00 00   ................
0x7f23c10db154  00 00 00 00 00 00 00 00 00 00 00 00 00 00 00 00   ................
0x7f23c10db164  00 00 00 00 00 00 00 00 00 00 00 00 00 00 00 00   ................
0x7f23c10db174  00 00 00 00 00 00 00 00 00 00 00 00 00 00 00 00   ................
0x7f23c10db184  00 00 00 00 00 00 00 00 00 00 00 00 00 00 00 00   ................
0x7f23c10db194  00 00 00 00 00 00 00 00 00 00 00 00 00 00 00 00   ................
0x7f23c10db1a4  00 00 00 00 00 00 00 00 00 00 00 00 00 00 00 00   ................
0x7f23c10db1b4  00 00 00 00 00 00 00 00 00 00 00 00 00 00 00 00   ................
0x7f23c10db1c4  00 00 00 00 00 00 00 00 00 00 00 00 00 00 00 00   ................
Task: smbd pid 2931 rule r1 addr 0x7f23c10db534
0x7f23c10db534  31 39 32 2e 31 36 38 2e 31 30 2e 32 30 30 00 00   192.168.10.200..
0x7f23c10db544  00 00 00 00 00 00 00 00 75 6f 63 6f 6e 74 72 6f   ........uocontro
0x7f23c10db554  6c 63 6c 69 65 6e 74 65 2d 70 63 00 00 00 00 00   lcliente-pc.....
0x7f23c10db564  00 00 00 00 00 00 00 00 00 00 00 00 00 00 00 00   ................
0x7f23c10db574  00 00 00 00 00 00 00 00 00 00 00 00 00 00 00 00   ................
0x7f23c10db584  00 00 00 00 00 00 00 00 00 00 00 00 00 00 00 00   ................
0x7f23c10db594  00 00 00 00 00 00 00 00 00 00 00 00 00 00 00 00   ................
0x7f23c10db5a4  00 00 00 00 00 00 00 00 00 00 00 00 00 00 00 00   ................
0x7f23c10db5b4  00 00 00 00 00 00 00 00 00 00 00 00 00 00 00 00   ................
0x7f23c10db5c4  00 00 00 00 00 00 00 00 00 00 00 00 00 00 00 00   ................
0x7f23c10db5d4  00 00 00 00 00 00 00 00 00 00 00 00 00 00 00 00   ................
0x7f23c10db5e4  00 00 00 00 00 00 00 00 00 00 00 00 00 00 00 00   ................
0x7f23c10db5f4  00 00 00 00 00 00 00 00 00 00 00 00 00 00 00 00   ................
0x7f23c10db604  00 00 00 00 00 00 00 00 00 00 00 00 00 00 00 00   ................
0x7f23c10db614  00 00 00 00 00 00 00 00 00 00 00 00 00 00 00 00   ................
0x7f23c10db624  00 00 00 00 00 00 00 00 00 00 00 00 00 00 00 00   ................
Task: smbd pid 2931 rule r1 addr 0x7f23c10db994
0x7f23c10db994  31 39 32 2e 31 36 38 2e 31 30 2e 32 30 30 00 00   192.168.10.200..
0x7f23c10db9a4  00 00 00 00 00 00 00 00 00 00 00 00 00 00 00 00   ................
0x7f23c10db9b4  00 00 00 00 00 00 00 00 00 00 00 00 00 00 00 00   ................
0x7f23c10db9c4  00 00 00 00 00 00 00 00 00 00 00 00 00 00 00 00   ................
0x7f23c10db9d4  00 00 00 00 00 00 00 00 00 00 00 00 00 00 00 00   ................
0x7f23c10db9e4  00 00 00 00 00 00 00 00 00 00 00 00 00 00 00 00   ................
0x7f23c10db9f4  00 00 00 00 00 00 00 00 00 00 00 00 00 00 00 00   ................
0x7f23c10dba04  00 00 00 00 00 00 00 00 00 00 00 00 00 00 00 00   ................
0x7f23c10dba14  00 00 00 00 00 00 00 00 00 00 00 00 00 00 00 00   ................
0x7f23c10dba24  00 00 00 00 00 00 00 00 00 00 00 00 00 00 00 00   ................
0x7f23c10dba34  00 00 00 00 00 00 00 00 00 00 00 00 00 00 00 00   ................
0x7f23c10dba44  00 00 00 00 00 00 00 00 00 00 00 00 00 00 00 00   ................
0x7f23c10dba54  00 00 00 00 00 00 00 00 00 00 00 00 00 00 00 00   ................
0x7f23c10dba64  00 00 00 00 00 00 00 00 00 00 00 00 00 00 00 00   ................
0x7f23c10dba74  00 00 00 00 00 00 00 00 00 00 00 00 00 00 00 00   ................
0x7f23c10dba84  00 00 00 00 00 00 00 00 00 00 00 00 00 00 00 00   ................
Task: smbd pid 2931 rule r1 addr 0x7f23c10dbdf4
0x7f23c10dbdf4  31 39 32 2e 31 36 38 2e 31 30 2e 32 30 30 00 00   192.168.10.200..
0x7f23c10dbe04  00 00 00 00 00 00 00 00 00 00 00 00 00 00 00 00   ................
0x7f23c10dbe14  00 00 00 00 00 00 00 00 00 00 00 00 00 00 00 00   ................
0x7f23c10dbe24  00 00 00 00 00 00 00 00 00 00 00 00 00 00 00 00   ................
0x7f23c10dbe34  00 00 00 00 00 00 00 00 00 00 00 00 00 00 00 00   ................
0x7f23c10dbe44  00 00 00 00 00 00 00 00 00 00 00 00 00 00 00 00   ................
0x7f23c10dbe54  00 00 00 00 00 00 00 00 00 00 00 00 00 00 00 00   ................
0x7f23c10dbe64  00 00 00 00 00 00 00 00 00 00 00 00 00 00 00 00   ................
0x7f23c10dbe74  00 00 00 00 00 00 00 00 00 00 00 00 00 00 00 00   ................
0x7f23c10dbe84  00 00 00 00 00 00 00 00 00 00 00 00 00 00 00 00   ................
0x7f23c10dbe94  00 00 00 00 00 00 00 00 00 00 00 00 00 00 00 00   ................
0x7f23c10dbea4  00 00 00 00 00 00 00 00 00 00 00 00 00 00 00 00   ................
0x7f23c10dbeb4  00 00 00 00 00 00 00 00 00 00 00 00 00 00 00 00   ................
0x7f23c10dbec4  00 00 00 00 00 00 00 00 00 00 00 00 00 00 00 00   ................
0x7f23c10dbed4  00 00 00 00 00 00 00 00 00 00 00 00 00 00 00 00   ................
0x7f23c10dbee4  00 00 00 00 00 00 00 00 00 00 00 00 00 00 00 00   ................
Task: smbd pid 2931 rule r1 addr 0x7f23c1d7d580
0x7f23c1d7d580  31 39 32 2e 31 36 38 2e 31 30 2e 32 30 30 00 00   192.168.10.200..
0x7f23c1d7d590  00 00 00 00 00 00 00 00 00 00 00 00 00 00 00 00   ................
0x7f23c1d7d5a0  00 00 00 00 00 00 00 00 00 00 00 00 00 00 00 00   ................
0x7f23c1d7d5b0  90 b2 6c c2 23 7f 00 00 00 00 00 00 00 00 00 00   ..l.#...........
0x7f23c1d7d5c0  31 39 32 2e 31 36 38 2e 31 30 2e 32 00 00 00 00   192.168.10.2....
0x7f23c1d7d5d0  00 00 00 00 00 00 00 00 00 00 00 00 00 00 00 00   ................
0x7f23c1d7d5e0  00 00 00 00 00 00 00 00 00 00 00 00 00 00 00 00   ................
0x7f23c1d7d5f0  00 00 00 00 00 00 00 00 01 00 00 00 00 00 00 00   ................
0x7f23c1d7d600  00 00 00 00 00 00 00 00 00 00 00 00 00 00 00 00   ................
0x7f23c1d7d610  00 00 00 00 00 00 00 00 f0 27 6c c2 23 7f 00 00   .........'l.#...
0x7f23c1d7d620  f0 c4 6c c2 23 7f 00 00 06 00 00 00 00 00 00 00   ..l.#...........
0x7f23c1d7d630  20 c2 6c c2 23 7f 00 00 e0 21 6c c2 23 7f 00 00   ..l.#....!l.#...
0x7f23c1d7d640  01 00 00 00 00 00 00 00 a0 a4 6b c2 23 7f 00 00   ..........k.#...
0x7f23c1d7d650  d0 a1 6b c2 23 7f 00 00 00 00 00 00 00 00 00 00   ..k.#...........
0x7f23c1d7d660  e0 da 6b c2 23 7f 00 00 10 d5 6b c2 23 7f 00 00   ..k.#.....k.#...
0x7f23c1d7d670  20 a5 6b c2 23 7f 00 00 00 00 00 00 00 00 00 00   ..k.#...........
Task: smbd pid 2931 rule r1 addr 0x7f23c1d7d5c0
0x7f23c1d7d5c0  31 39 32 2e 31 36 38 2e 31 30 2e 32 00 00 00 00   192.168.10.2....
0x7f23c1d7d5d0  00 00 00 00 00 00 00 00 00 00 00 00 00 00 00 00   ................
0x7f23c1d7d5e0  00 00 00 00 00 00 00 00 00 00 00 00 00 00 00 00   ................
0x7f23c1d7d5f0  00 00 00 00 00 00 00 00 01 00 00 00 00 00 00 00   ................
0x7f23c1d7d600  00 00 00 00 00 00 00 00 00 00 00 00 00 00 00 00   ................
0x7f23c1d7d610  00 00 00 00 00 00 00 00 f0 27 6c c2 23 7f 00 00   .........'l.#...
0x7f23c1d7d620  f0 c4 6c c2 23 7f 00 00 06 00 00 00 00 00 00 00   ..l.#...........
0x7f23c1d7d630  20 c2 6c c2 23 7f 00 00 e0 21 6c c2 23 7f 00 00   ..l.#....!l.#...
0x7f23c1d7d640  01 00 00 00 00 00 00 00 a0 a4 6b c2 23 7f 00 00   ..........k.#...
0x7f23c1d7d650  d0 a1 6b c2 23 7f 00 00 00 00 00 00 00 00 00 00   ..k.#...........
0x7f23c1d7d660  e0 da 6b c2 23 7f 00 00 10 d5 6b c2 23 7f 00 00   ..k.#.....k.#...
0x7f23c1d7d670  20 a5 6b c2 23 7f 00 00 00 00 00 00 00 00 00 00   ..k.#...........
0x7f23c1d7d680  00 00 00 00 00 00 00 00 00 00 00 00 00 00 00 00   ................
0x7f23c1d7d690  00 00 00 00 00 00 00 00 00 00 00 00 00 00 00 00   ................
0x7f23c1d7d6a0  00 00 00 00 00 00 00 00 00 00 00 00 00 00 00 00   ................
0x7f23c1d7d6b0  00 00 00 00 00 00 00 00 00 00 00 00 00 00 00 00   ................
Task: smbd pid 2931 rule r1 addr 0x7f23c26ba5e8
0x7f23c26ba5e8  31 39 32 2e 31 36 38 2e 31 30 2e 32 30 30 00 00   192.168.10.200..
0x7f23c26ba5f8  00 00 00 00 00 00 00 00 00 00 00 00 00 00 00 00   ................
0x7f23c26ba608  00 00 00 00 00 00 00 00 00 00 00 00 00 00 00 00   ................
0x7f23c26ba618  50 b9 6b c2 23 7f 00 00 70 f0 6b c2 23 7f 00 00   P.k.#...p.k.#...
0x7f23c26ba628  b0 ea 6b c2 23 7f 00 00 10 d5 6b c2 23 7f 00 00   ..k.#.....k.#...
0x7f23c26ba638  01 00 00 00 05 00 00 00 e0 48 6c c2 23 7f 00 00   .........Hl.#...
0x7f23c26ba648  00 00 00 00 00 00 00 00 f0 b1 6c c2 23 7f 00 00   ..........l.#...
0x7f23c26ba658  00 40 00 00 00 00 00 00 00 00 00 00 00 00 00 00   .@..............
0x7f23c26ba668  00 00 00 00 00 00 00 00 00 00 00 00 00 00 00 00   ................
0x7f23c26ba678  00 00 00 00 00 00 00 00 00 00 00 00 00 00 00 00   ................
0x7f23c26ba688  00 00 00 00 01 00 00 00 00 47 6c c2 23 7f 00 00   .........Gl.#...
0x7f23c26ba698  00 00 00 00 00 00 00 00 00 00 00 00 00 00 00 00   ................
0x7f23c26ba6a8  06 00 00 00 00 00 00 00 60 46 6d c2 23 7f 00 00   ........`Fm.#...
0x7f23c26ba6b8  ff ff ff ff ff ff ff ff 00 00 00 00 00 00 00 00   ................
0x7f23c26ba6c8  00 00 00 00 00 00 00 00 01 01 00 00 00 00 00 00   ................
0x7f23c26ba6d8  00 00 00 00 00 00 00 00 01 00 00 00 04 41 00 00   .............A..
Task: smbd pid 2931 rule r1 addr 0x7f23c26bb950
0x7f23c26bb950  31 39 32 2e 31 36 38 2e 31 30 2e 32 30 30 00 6c   192.168.10.200.l
0x7f23c26bb960  6f 67 2e 73 6d 62 64 00 71 00 00 00 00 00 00 00   og.smbd.q.......
0x7f23c26bb970  00 00 00 00 00 00 00 00 40 23 6d c2 23 7f 00 00   ........@#m.#...
0x7f23c26bb980  00 00 00 00 00 00 00 00 00 00 00 00 00 00 00 00   ................
0x7f23c26bb990  00 00 00 00 00 00 00 00 e0 ce 61 c1 23 7f 00 00   ..........a.#...
0x7f23c26bb9a0  58 8e 9e c1 23 7f 00 00 18 00 00 00 00 00 00 00   X...#...........
0x7f23c26bb9b0  70 0c 15 e8 23 7f 00 00 00 00 00 00 00 00 00 00   p...#...........
0x7f23c26bb9c0  c0 b9 6b c2 23 7f 00 00 00 00 00 00 00 00 00 00   ..k.#...........
0x7f23c26bb9d0  b0 0b 6d c2 23 7f 00 00 21 00 00 00 00 00 00 00   ..m.#...!.......
0x7f23c26bb9e0  74 64 62 73 61 6d 00 00 62 61 00 be 23 7f 00 00   tdbsam..ba..#...
0x7f23c26bb9f0  50 b7 6b c2 23 7f 00 00 21 00 00 00 00 00 00 00   P.k.#...!.......
0x7f23c26bba00  2f 76 61 72 2f 63 61 63 68 65 2f 73 61 6d 62 61   /var/cache/samba
0x7f23c26bba10  00 00 00 00 00 00 00 00 b1 00 00 00 00 00 00 00   ................
0x7f23c26bba20  d0 a4 6b c2 23 7f 00 00 d0 ba 6b c2 23 7f 00 00   ..k.#.....k.#...
0x7f23c26bba30  00 00 00 00 00 00 00 00 00 00 00 00 00 00 00 00   ................
0x7f23c26bba40  00 00 00 00 00 00 00 00 00 00 00 00 00 00 00 00   ................
Task: smbd pid 2931 rule r1 addr 0x7f23c26cb290
0x7f23c26cb290  31 39 32 2e 31 36 38 2e 31 30 2e 32 30 30 00 00   192.168.10.200..
0x7f23c26cb2a0  20 00 00 00 00 00 00 00 31 00 00 00 00 00 00 00   ........1.......
0x7f23c26cb2b0  f0 22 6c c2 23 7f 00 00 10 a1 6c c2 23 7f 00 00   ."l.#.....l.#...
0x7f23c26cb2c0  00 00 00 00 00 00 00 00 4e 4c 00 32 30 00 00 00   ........NL.20...
0x7f23c26cb2d0  30 00 00 00 00 00 00 00 61 00 00 00 00 00 00 00   0.......a.......
0x7f23c26cb2e0  00 00 00 00 00 00 00 00 00 00 00 00 00 00 00 00   ................
0x7f23c26cb2f0  00 b0 6c c2 23 7f 00 00 20 bb 6c c2 23 7f 00 00   ..l.#.....l.#...
0x7f23c26cb300  00 00 00 00 00 00 00 00 00 00 00 00 00 00 00 00   ................
0x7f23c26cb310  6b f4 9d c1 23 7f 00 00 08 00 00 00 00 00 00 00   k...#...........
0x7f23c26cb320  70 0c 15 e8 00 00 00 00 00 00 00 00 00 00 00 00   p...............
0x7f23c26cb330  80 da 6c c2 23 7f 00 00 61 00 00 00 00 00 00 00   ..l.#...a.......
0x7f23c26cb340  00 00 00 00 00 00 00 00 a0 bb 6c c2 23 7f 00 00   ..........l.#...
0x7f23c26cb350  00 00 00 00 00 00 00 00 00 00 00 00 00 00 00 00   ................
0x7f23c26cb360  00 00 00 00 00 00 00 00 00 00 00 00 00 00 00 00   ................
0x7f23c26cb370  ad ab 87 c1 23 7f 00 00 04 00 00 00 00 00 00 00   ....#...........
0x7f23c26cb380  70 0c 15 e8 00 00 00 00 00 00 00 00 00 00 00 00   p...............
Task: smbd pid 2931 rule r1 addr 0x7f23c26ce743
0x7f23c26ce743  31 39 32 2e 31 36 38 2e 31 30 2e 32 30 a0 00 00   192.168.10.20...
0x7f23c26ce753  00 00 00 00 00 61 00 00 00 00 00 00 00 81 cc 6c   .....a.........l
0x7f23c26ce763  c2 23 7f 00 00 00 00 00 00 00 00 00 00 00 00 00   .#..............
0x7f23c26ce773  00 00 00 00 00 c0 e7 6c c2 23 7f 00 00 30 cb 6c   .......l.#...0.l
0x7f23c26ce783  c2 23 7f 00 00 10 00 00 00 00 00 00 00 04 00 00   .#..............
0x7f23c26ce793  00 00 00 00 00 04 01 02 00 00 00 00 00 16 02 00   ................
0x7f23c26ce7a3  00 00 fe ff 00 00 fe ff 00 00 00 00 00 00 00 00   ................
0x7f23c26ce7b3  00 00 00 00 00 61 00 00 00 00 00 00 00 90 f3 6c   .....a.........l
0x7f23c26ce7c3  c2 23 7f 00 00 00 00 00 00 00 00 00 00 00 00 00   .#..............
0x7f23c26ce7d3  00 00 00 00 00 c0 f4 6c c2 23 7f 00 00 60 e7 6c   .......l.#...`.l
0x7f23c26ce7e3  c2 23 7f 00 00 04 00 00 00 00 00 00 00 10 00 00   .#..............
0x7f23c26ce7f3  00 00 00 00 00 03 fe ff 00 00 01 02 00 00 00 00   ................
0x7f23c26ce803  00 16 02 00 00 00 fe ff 00 00 00 00 00 00 00 00   ................
0x7f23c26ce813  00 00 00 00 00 81 00 00 00 00 00 00 00 e0 e3 6c   ...............l
0x7f23c26ce823  c2 23 7f 00 00 10 eb 6c c2 23 7f 00 00 00 00 00   .#.....l.#......
0x7f23c26ce833  00 00 00 00 00 d0 ec 6c c2 23 7f 00 00 00 00 00   .......l.#......
Task: smbd pid 2931 rule r1 addr 0x7f23c26d3cac
0x7f23c26d3cac  31 39 32 2e 31 36 38 2e 31 30 2e 32 30 30 00 00   192.168.10.200..
0x7f23c26d3cbc  00 00 00 00 00 00 00 00 00 00 00 00 00 00 00 00   ................
0x7f23c26d3ccc  00 00 00 00 00 00 00 00 00 00 00 00 00 00 00 00   ................
0x7f23c26d3cdc  00 00 00 00 00 00 00 00 00 00 00 00 00 00 00 00   ................
0x7f23c26d3cec  00 00 00 00 00 00 00 00 00 00 00 00 00 00 00 00   ................
0x7f23c26d3cfc  00 00 00 00 00 00 00 00 00 00 00 00 00 00 00 00   ................
0x7f23c26d3d0c  00 00 00 00 00 00 00 00 00 00 00 00 00 00 00 00   ................
0x7f23c26d3d1c  00 00 00 00 00 00 00 00 00 00 00 00 00 00 00 00   ................
0x7f23c26d3d2c  00 00 00 00 00 00 00 00 00 00 00 00 00 00 00 00   ................
0x7f23c26d3d3c  00 00 00 00 00 00 00 00 00 00 00 00 00 00 00 00   ................
0x7f23c26d3d4c  00 00 00 00 00 00 00 00 00 00 00 00 00 00 00 00   ................
0x7f23c26d3d5c  00 00 00 00 00 00 00 00 00 00 00 00 00 00 00 00   ................
0x7f23c26d3d6c  00 00 00 00 00 00 00 00 00 00 00 00 00 00 00 00   ................
0x7f23c26d3d7c  00 00 00 00 00 00 00 00 00 00 00 00 00 00 00 00   ................
0x7f23c26d3d8c  00 00 00 00 00 00 00 00 00 00 00 00 00 00 00 00   ................
0x7f23c26d3d9c  00 00 00 00 00 00 00 00 00 00 00 00 00 00 00 00   ................
Task: smbd pid 2931 rule r1 addr 0x7f23c26d7377
0x7f23c26d7377  31 39 32 2e 31 36 38 2e 31 30 2e 32 30 30 00 00   192.168.10.200..
0x7f23c26d7387  00 00 00 00 00 00 00 00 00 00 00 00 00 00 00 00   ................
0x7f23c26d7397  00 00 00 00 00 00 00 00 00 00 01 00 00 00 00 00   ................
0x7f23c26d73a7  00 21 00 00 00 00 00 00 00 6e 65 74 64 66 73 00   .!.......netdfs.
0x7f23c26d73b7  00 88 e7 52 be 23 7f 00 00 20 00 00 00 00 00 00   ...R.#..........
0x7f23c26d73c7  00 21 00 00 00 00 00 00 00 75 6e 69 78 00 7f 00   .!.......unix...
0x7f23c26d73d7  00 f0 ca 6b c2 23 7f 00 00 10 bc 6c c2 23 7f 00   ...k.#.....l.#..
0x7f23c26d73e7  00 41 00 00 00 00 00 00 00 00 cb 6b c2 23 7f 00   .A.........k.#..
0x7f23c26d73f7  00 40 d0 65 c1 23 7f 00 00 20 cb 6b c2 23 7f 00   .@.e.#.....k.#..
0x7f23c26d7407  00 b0 21 6d c2 23 7f 00 00 73 0c 15 e8 00 00 00   ..!m.#...s......
0x7f23c26d7417  00 00 00 00 00 00 00 00 00 40 00 00 00 00 00 00   .........@......
0x7f23c26d7427  00 f1 00 00 00 00 00 00 00 80 39 6d c2 23 7f 00   ..........9m.#..
0x7f23c26d7437  00 d0 01 6d c2 23 7f 00 00 00 00 00 00 00 00 00   ...m.#..........
0x7f23c26d7447  00 00 00 00 00 00 00 00 00 00 00 00 00 00 00 00   ................
0x7f23c26d7457  00 00 00 00 00 00 00 00 00 cd 90 9e c1 23 7f 00   .............#..
0x7f23c26d7467  00 98 00 00 00 00 00 00 00 70 0c 15 e8 00 00 00   .........p......
Task: smbd pid 2932 rule r1 addr 0x7f23c10db0d4
0x7f23c10db0d4  31 39 32 2e 31 36 38 2e 31 30 2e 32 30 30 00 00   192.168.10.200..
0x7f23c10db0e4  00 00 00 00 00 00 00 00 75 6f 63 6f 6e 74 72 6f   ........uocontro
0x7f23c10db0f4  6c 63 6c 69 65 6e 74 65 2d 70 63 00 00 00 00 00   lcliente-pc.....
0x7f23c10db104  00 00 00 00 00 00 00 00 00 00 00 00 00 00 00 00   ................
0x7f23c10db114  00 00 00 00 00 00 00 00 00 00 00 00 00 00 00 00   ................
0x7f23c10db124  00 00 00 00 00 00 00 00 00 00 00 00 00 00 00 00   ................
0x7f23c10db134  00 00 00 00 00 00 00 00 00 00 00 00 00 00 00 00   ................
0x7f23c10db144  00 00 00 00 00 00 00 00 00 00 00 00 00 00 00 00   ................
0x7f23c10db154  00 00 00 00 00 00 00 00 00 00 00 00 00 00 00 00   ................
0x7f23c10db164  00 00 00 00 00 00 00 00 00 00 00 00 00 00 00 00   ................
0x7f23c10db174  00 00 00 00 00 00 00 00 00 00 00 00 00 00 00 00   ................
0x7f23c10db184  00 00 00 00 00 00 00 00 00 00 00 00 00 00 00 00   ................
0x7f23c10db194  00 00 00 00 00 00 00 00 00 00 00 00 00 00 00 00   ................
0x7f23c10db1a4  00 00 00 00 00 00 00 00 00 00 00 00 00 00 00 00   ................
0x7f23c10db1b4  00 00 00 00 00 00 00 00 00 00 00 00 00 00 00 00   ................
0x7f23c10db1c4  00 00 00 00 00 00 00 00 00 00 00 00 00 00 00 00   ................
Task: smbd pid 2932 rule r1 addr 0x7f23c10db534
0x7f23c10db534  31 39 32 2e 31 36 38 2e 31 30 2e 32 30 30 00 00   192.168.10.200..
0x7f23c10db544  00 00 00 00 00 00 00 00 75 6f 63 6f 6e 74 72 6f   ........uocontro
0x7f23c10db554  6c 63 6c 69 65 6e 74 65 2d 70 63 00 00 00 00 00   lcliente-pc.....
0x7f23c10db564  00 00 00 00 00 00 00 00 00 00 00 00 00 00 00 00   ................
0x7f23c10db574  00 00 00 00 00 00 00 00 00 00 00 00 00 00 00 00   ................
0x7f23c10db584  00 00 00 00 00 00 00 00 00 00 00 00 00 00 00 00   ................
0x7f23c10db594  00 00 00 00 00 00 00 00 00 00 00 00 00 00 00 00   ................
0x7f23c10db5a4  00 00 00 00 00 00 00 00 00 00 00 00 00 00 00 00   ................
0x7f23c10db5b4  00 00 00 00 00 00 00 00 00 00 00 00 00 00 00 00   ................
0x7f23c10db5c4  00 00 00 00 00 00 00 00 00 00 00 00 00 00 00 00   ................
0x7f23c10db5d4  00 00 00 00 00 00 00 00 00 00 00 00 00 00 00 00   ................
0x7f23c10db5e4  00 00 00 00 00 00 00 00 00 00 00 00 00 00 00 00   ................
0x7f23c10db5f4  00 00 00 00 00 00 00 00 00 00 00 00 00 00 00 00   ................
0x7f23c10db604  00 00 00 00 00 00 00 00 00 00 00 00 00 00 00 00   ................
0x7f23c10db614  00 00 00 00 00 00 00 00 00 00 00 00 00 00 00 00   ................
0x7f23c10db624  00 00 00 00 00 00 00 00 00 00 00 00 00 00 00 00   ................
Task: smbd pid 2932 rule r1 addr 0x7f23c10db994
0x7f23c10db994  31 39 32 2e 31 36 38 2e 31 30 2e 32 30 30 00 00   192.168.10.200..
0x7f23c10db9a4  00 00 00 00 00 00 00 00 00 00 00 00 00 00 00 00   ................
0x7f23c10db9b4  00 00 00 00 00 00 00 00 00 00 00 00 00 00 00 00   ................
0x7f23c10db9c4  00 00 00 00 00 00 00 00 00 00 00 00 00 00 00 00   ................
0x7f23c10db9d4  00 00 00 00 00 00 00 00 00 00 00 00 00 00 00 00   ................
0x7f23c10db9e4  00 00 00 00 00 00 00 00 00 00 00 00 00 00 00 00   ................
0x7f23c10db9f4  00 00 00 00 00 00 00 00 00 00 00 00 00 00 00 00   ................
0x7f23c10dba04  00 00 00 00 00 00 00 00 00 00 00 00 00 00 00 00   ................
0x7f23c10dba14  00 00 00 00 00 00 00 00 00 00 00 00 00 00 00 00   ................
0x7f23c10dba24  00 00 00 00 00 00 00 00 00 00 00 00 00 00 00 00   ................
0x7f23c10dba34  00 00 00 00 00 00 00 00 00 00 00 00 00 00 00 00   ................
0x7f23c10dba44  00 00 00 00 00 00 00 00 00 00 00 00 00 00 00 00   ................
0x7f23c10dba54  00 00 00 00 00 00 00 00 00 00 00 00 00 00 00 00   ................
0x7f23c10dba64  00 00 00 00 00 00 00 00 00 00 00 00 00 00 00 00   ................
0x7f23c10dba74  00 00 00 00 00 00 00 00 00 00 00 00 00 00 00 00   ................
0x7f23c10dba84  00 00 00 00 00 00 00 00 00 00 00 00 00 00 00 00   ................
Task: smbd pid 2932 rule r1 addr 0x7f23c10dbdf4
0x7f23c10dbdf4  31 39 32 2e 31 36 38 2e 31 30 2e 32 30 30 00 00   192.168.10.200..
0x7f23c10dbe04  00 00 00 00 00 00 00 00 00 00 00 00 00 00 00 00   ................
0x7f23c10dbe14  00 00 00 00 00 00 00 00 00 00 00 00 00 00 00 00   ................
0x7f23c10dbe24  00 00 00 00 00 00 00 00 00 00 00 00 00 00 00 00   ................
0x7f23c10dbe34  00 00 00 00 00 00 00 00 00 00 00 00 00 00 00 00   ................
0x7f23c10dbe44  00 00 00 00 00 00 00 00 00 00 00 00 00 00 00 00   ................
0x7f23c10dbe54  00 00 00 00 00 00 00 00 00 00 00 00 00 00 00 00   ................
0x7f23c10dbe64  00 00 00 00 00 00 00 00 00 00 00 00 00 00 00 00   ................
0x7f23c10dbe74  00 00 00 00 00 00 00 00 00 00 00 00 00 00 00 00   ................
0x7f23c10dbe84  00 00 00 00 00 00 00 00 00 00 00 00 00 00 00 00   ................
0x7f23c10dbe94  00 00 00 00 00 00 00 00 00 00 00 00 00 00 00 00   ................
0x7f23c10dbea4  00 00 00 00 00 00 00 00 00 00 00 00 00 00 00 00   ................
0x7f23c10dbeb4  00 00 00 00 00 00 00 00 00 00 00 00 00 00 00 00   ................
0x7f23c10dbec4  00 00 00 00 00 00 00 00 00 00 00 00 00 00 00 00   ................
0x7f23c10dbed4  00 00 00 00 00 00 00 00 00 00 00 00 00 00 00 00   ................
0x7f23c10dbee4  00 00 00 00 00 00 00 00 00 00 00 00 00 00 00 00   ................
Task: smbd pid 2932 rule r1 addr 0x7f23c1d7d580
0x7f23c1d7d580  31 39 32 2e 31 36 38 2e 31 30 2e 32 30 30 00 00   192.168.10.200..
0x7f23c1d7d590  00 00 00 00 00 00 00 00 00 00 00 00 00 00 00 00   ................
0x7f23c1d7d5a0  00 00 00 00 00 00 00 00 00 00 00 00 00 00 00 00   ................
0x7f23c1d7d5b0  90 b2 6c c2 23 7f 00 00 00 00 00 00 00 00 00 00   ..l.#...........
0x7f23c1d7d5c0  31 39 32 2e 31 36 38 2e 31 30 2e 32 00 00 00 00   192.168.10.2....
0x7f23c1d7d5d0  00 00 00 00 00 00 00 00 00 00 00 00 00 00 00 00   ................
0x7f23c1d7d5e0  00 00 00 00 00 00 00 00 00 00 00 00 00 00 00 00   ................
0x7f23c1d7d5f0  00 00 00 00 00 00 00 00 01 00 00 00 00 00 00 00   ................
0x7f23c1d7d600  00 00 00 00 00 00 00 00 00 00 00 00 00 00 00 00   ................
0x7f23c1d7d610  00 00 00 00 00 00 00 00 f0 27 6c c2 23 7f 00 00   .........'l.#...
0x7f23c1d7d620  f0 c4 6c c2 23 7f 00 00 06 00 00 00 00 00 00 00   ..l.#...........
0x7f23c1d7d630  20 c2 6c c2 23 7f 00 00 e0 21 6c c2 23 7f 00 00   ..l.#....!l.#...
0x7f23c1d7d640  01 00 00 00 00 00 00 00 a0 a4 6b c2 23 7f 00 00   ..........k.#...
0x7f23c1d7d650  d0 a1 6b c2 23 7f 00 00 00 00 00 00 00 00 00 00   ..k.#...........
0x7f23c1d7d660  e0 da 6b c2 23 7f 00 00 10 d5 6b c2 23 7f 00 00   ..k.#.....k.#...
0x7f23c1d7d670  20 a5 6b c2 23 7f 00 00 00 00 00 00 00 00 00 00   ..k.#...........
Task: smbd pid 2932 rule r1 addr 0x7f23c1d7d5c0
0x7f23c1d7d5c0  31 39 32 2e 31 36 38 2e 31 30 2e 32 00 00 00 00   192.168.10.2....
0x7f23c1d7d5d0  00 00 00 00 00 00 00 00 00 00 00 00 00 00 00 00   ................
0x7f23c1d7d5e0  00 00 00 00 00 00 00 00 00 00 00 00 00 00 00 00   ................
0x7f23c1d7d5f0  00 00 00 00 00 00 00 00 01 00 00 00 00 00 00 00   ................
0x7f23c1d7d600  00 00 00 00 00 00 00 00 00 00 00 00 00 00 00 00   ................
0x7f23c1d7d610  00 00 00 00 00 00 00 00 f0 27 6c c2 23 7f 00 00   .........'l.#...
0x7f23c1d7d620  f0 c4 6c c2 23 7f 00 00 06 00 00 00 00 00 00 00   ..l.#...........
0x7f23c1d7d630  20 c2 6c c2 23 7f 00 00 e0 21 6c c2 23 7f 00 00   ..l.#....!l.#...
0x7f23c1d7d640  01 00 00 00 00 00 00 00 a0 a4 6b c2 23 7f 00 00   ..........k.#...
0x7f23c1d7d650  d0 a1 6b c2 23 7f 00 00 00 00 00 00 00 00 00 00   ..k.#...........
0x7f23c1d7d660  e0 da 6b c2 23 7f 00 00 10 d5 6b c2 23 7f 00 00   ..k.#.....k.#...
0x7f23c1d7d670  20 a5 6b c2 23 7f 00 00 00 00 00 00 00 00 00 00   ..k.#...........
0x7f23c1d7d680  00 00 00 00 00 00 00 00 00 00 00 00 00 00 00 00   ................
0x7f23c1d7d690  00 00 00 00 00 00 00 00 00 00 00 00 00 00 00 00   ................
0x7f23c1d7d6a0  00 00 00 00 00 00 00 00 00 00 00 00 00 00 00 00   ................
0x7f23c1d7d6b0  00 00 00 00 00 00 00 00 00 00 00 00 00 00 00 00   ................
Task: smbd pid 2932 rule r1 addr 0x7f23c26ba5e8
0x7f23c26ba5e8  31 39 32 2e 31 36 38 2e 31 30 2e 32 30 30 00 00   192.168.10.200..
0x7f23c26ba5f8  00 00 00 00 00 00 00 00 00 00 00 00 00 00 00 00   ................
0x7f23c26ba608  00 00 00 00 00 00 00 00 00 00 00 00 00 00 00 00   ................
0x7f23c26ba618  50 b9 6b c2 23 7f 00 00 70 f0 6b c2 23 7f 00 00   P.k.#...p.k.#...
0x7f23c26ba628  b0 ea 6b c2 23 7f 00 00 10 d5 6b c2 23 7f 00 00   ..k.#.....k.#...
0x7f23c26ba638  01 00 00 00 0d 00 00 00 e0 48 6c c2 23 7f 00 00   .........Hl.#...
0x7f23c26ba648  00 00 00 00 00 00 00 00 f0 b1 6c c2 23 7f 00 00   ..........l.#...
0x7f23c26ba658  00 40 00 00 00 00 00 00 00 00 00 00 00 00 00 00   .@..............
0x7f23c26ba668  00 00 00 00 00 00 00 00 00 00 00 00 00 00 00 00   ................
0x7f23c26ba678  00 00 00 00 00 00 00 00 02 00 00 00 00 00 00 00   ................
0x7f23c26ba688  55 1c 00 00 01 00 00 00 00 47 6c c2 23 7f 00 00   U........Gl.#...
0x7f23c26ba698  00 00 00 00 00 00 00 00 00 00 00 00 00 00 00 00   ................
0x7f23c26ba6a8  0e 00 00 00 00 00 00 00 60 46 6d c2 23 7f 00 00   ........`Fm.#...
0x7f23c26ba6b8  ff ff ff ff ff ff ff ff 00 00 00 00 00 00 00 00   ................
0x7f23c26ba6c8  00 00 00 00 00 00 00 00 01 01 00 00 00 00 00 00   ................
0x7f23c26ba6d8  00 00 00 00 00 00 00 00 01 00 00 00 04 41 00 00   .............A..
Task: smbd pid 2932 rule r1 addr 0x7f23c26bb950
0x7f23c26bb950  31 39 32 2e 31 36 38 2e 31 30 2e 32 30 30 00 6c   192.168.10.200.l
0x7f23c26bb960  6f 67 2e 73 6d 62 64 00 71 00 00 00 00 00 00 00   og.smbd.q.......
0x7f23c26bb970  00 00 00 00 00 00 00 00 40 23 6d c2 23 7f 00 00   ........@#m.#...
0x7f23c26bb980  00 00 00 00 00 00 00 00 00 00 00 00 00 00 00 00   ................
0x7f23c26bb990  00 00 00 00 00 00 00 00 e0 ce 61 c1 23 7f 00 00   ..........a.#...
0x7f23c26bb9a0  58 8e 9e c1 23 7f 00 00 18 00 00 00 00 00 00 00   X...#...........
0x7f23c26bb9b0  70 0c 15 e8 23 7f 00 00 00 00 00 00 00 00 00 00   p...#...........
0x7f23c26bb9c0  c0 b9 6b c2 23 7f 00 00 00 00 00 00 00 00 00 00   ..k.#...........
0x7f23c26bb9d0  b0 0b 6d c2 23 7f 00 00 21 00 00 00 00 00 00 00   ..m.#...!.......
0x7f23c26bb9e0  74 64 62 73 61 6d 00 00 62 61 00 be 23 7f 00 00   tdbsam..ba..#...
0x7f23c26bb9f0  50 b7 6b c2 23 7f 00 00 21 00 00 00 00 00 00 00   P.k.#...!.......
0x7f23c26bba00  2f 76 61 72 2f 63 61 63 68 65 2f 73 61 6d 62 61   /var/cache/samba
0x7f23c26bba10  00 00 00 00 00 00 00 00 b1 00 00 00 00 00 00 00   ................
0x7f23c26bba20  d0 a4 6b c2 23 7f 00 00 d0 ba 6b c2 23 7f 00 00   ..k.#.....k.#...
0x7f23c26bba30  00 00 00 00 00 00 00 00 00 00 00 00 00 00 00 00   ................
0x7f23c26bba40  00 00 00 00 00 00 00 00 00 00 00 00 00 00 00 00   ................
Task: smbd pid 2932 rule r1 addr 0x7f23c26cb290
0x7f23c26cb290  31 39 32 2e 31 36 38 2e 31 30 2e 32 30 30 00 00   192.168.10.200..
0x7f23c26cb2a0  20 00 00 00 00 00 00 00 31 00 00 00 00 00 00 00   ........1.......
0x7f23c26cb2b0  60 06 6c c2 23 7f 00 00 10 a1 6c c2 23 7f 00 00   `.l.#.....l.#...
0x7f23c26cb2c0  00 00 00 00 00 00 00 00 4e 4c 00 32 30 00 00 00   ........NL.20...
0x7f23c26cb2d0  30 00 00 00 00 00 00 00 61 00 00 00 00 00 00 00   0.......a.......
0x7f23c26cb2e0  00 00 00 00 00 00 00 00 00 00 00 00 00 00 00 00   ................
0x7f23c26cb2f0  00 b0 6c c2 23 7f 00 00 20 bb 6c c2 23 7f 00 00   ..l.#.....l.#...
0x7f23c26cb300  00 00 00 00 00 00 00 00 00 00 00 00 00 00 00 00   ................
0x7f23c26cb310  6b f4 9d c1 23 7f 00 00 08 00 00 00 00 00 00 00   k...#...........
0x7f23c26cb320  70 0c 15 e8 00 00 00 00 00 00 00 00 00 00 00 00   p...............
0x7f23c26cb330  80 da 6c c2 23 7f 00 00 61 00 00 00 00 00 00 00   ..l.#...a.......
0x7f23c26cb340  00 00 00 00 00 00 00 00 50 44 6c c2 23 7f 00 00   ........PDl.#...
0x7f23c26cb350  00 00 00 00 00 00 00 00 00 00 00 00 00 00 00 00   ................
0x7f23c26cb360  00 00 00 00 00 00 00 00 00 00 00 00 00 00 00 00   ................
0x7f23c26cb370  ad ab 87 c1 23 7f 00 00 04 00 00 00 00 00 00 00   ....#...........
0x7f23c26cb380  70 0c 15 e8 00 00 00 00 00 00 00 00 00 00 00 00   p...............
Task: smbd pid 2932 rule r1 addr 0x7f23c26ce743
0x7f23c26ce743  31 39 32 2e 31 36 38 2e 31 30 2e 32 30 a0 00 00   192.168.10.20...
0x7f23c26ce753  00 00 00 00 00 61 00 00 00 00 00 00 00 81 cc 6c   .....a.........l
0x7f23c26ce763  c2 23 7f 00 00 00 00 00 00 00 00 00 00 00 00 00   .#..............
0x7f23c26ce773  00 00 00 00 00 c0 e7 6c c2 23 7f 00 00 30 cb 6c   .......l.#...0.l
0x7f23c26ce783  c2 23 7f 00 00 10 00 00 00 00 00 00 00 04 00 00   .#..............
0x7f23c26ce793  00 00 00 00 00 04 01 02 00 00 00 00 00 16 02 00   ................
0x7f23c26ce7a3  00 00 fe ff 00 00 fe ff 00 00 00 00 00 00 00 00   ................
0x7f23c26ce7b3  00 00 00 00 00 61 00 00 00 00 00 00 00 90 f3 6c   .....a.........l
0x7f23c26ce7c3  c2 23 7f 00 00 00 00 00 00 00 00 00 00 00 00 00   .#..............
0x7f23c26ce7d3  00 00 00 00 00 c0 f4 6c c2 23 7f 00 00 60 e7 6c   .......l.#...`.l
0x7f23c26ce7e3  c2 23 7f 00 00 04 00 00 00 00 00 00 00 10 00 00   .#..............
0x7f23c26ce7f3  00 00 00 00 00 03 fe ff 00 00 01 02 00 00 00 00   ................
0x7f23c26ce803  00 16 02 00 00 00 fe ff 00 00 00 00 00 00 00 00   ................
0x7f23c26ce813  00 00 00 00 00 81 00 00 00 00 00 00 00 e0 e3 6c   ...............l
0x7f23c26ce823  c2 23 7f 00 00 10 eb 6c c2 23 7f 00 00 00 00 00   .#.....l.#......
0x7f23c26ce833  00 00 00 00 00 d0 ec 6c c2 23 7f 00 00 00 00 00   .......l.#......
Task: smbd pid 2932 rule r1 addr 0x7f23c26d7377
0x7f23c26d7377  31 39 32 2e 31 36 38 2e 31 30 2e 32 30 30 00 00   192.168.10.200..
0x7f23c26d7387  00 00 00 00 00 00 00 00 00 00 00 00 00 00 00 00   ................
0x7f23c26d7397  00 00 00 00 00 00 00 00 00 00 01 00 00 00 00 00   ................
0x7f23c26d73a7  00 21 00 00 00 00 00 00 00 6e 65 74 64 66 73 00   .!.......netdfs.
0x7f23c26d73b7  00 88 e7 52 be 23 7f 00 00 20 00 00 00 00 00 00   ...R.#..........
0x7f23c26d73c7  00 31 00 00 00 00 00 00 00 00 74 6d c2 23 7f 00   .1........tm.#..
0x7f23c26d73d7  00 c0 ce 65 c1 23 7f 00 00 00 cb 6b c2 23 7f 00   ...e.#.....k.#..
0x7f23c26d73e7  00 80 21 6d c2 23 7f 00 00 00 00 00 00 00 00 00   ..!m.#..........
0x7f23c26d73f7  00 31 00 00 00 00 00 00 00 75 6e 69 78 00 7f 00   .1.......unix...
0x7f23c26d7407  00 98 e7 52 be 23 7f 00 00 73 0c 15 e8 00 00 00   ...R.#...s......
0x7f23c26d7417  00 00 00 00 00 00 00 00 00 30 00 00 00 00 00 00   .........0......
0x7f23c26d7427  00 f1 00 00 00 00 00 00 00 80 39 6d c2 23 7f 00   ..........9m.#..
0x7f23c26d7437  00 d0 01 6d c2 23 7f 00 00 00 00 00 00 00 00 00   ...m.#..........
0x7f23c26d7447  00 00 00 00 00 00 00 00 00 00 00 00 00 00 00 00   ................
0x7f23c26d7457  00 00 00 00 00 00 00 00 00 cd 90 9e c1 23 7f 00   .............#..
0x7f23c26d7467  00 98 00 00 00 00 00 00 00 70 0c 15 e8 00 00 00   .........p......
Task: smbd pid 2936 rule r1 addr 0x7f23c10a90d4
0x7f23c10a90d4  31 39 32 2e 31 36 38 2e 31 30 2e 32 30 30 00 00   192.168.10.200..
0x7f23c10a90e4  00 00 00 00 00 00 00 00 75 6f 63 6f 6e 74 72 6f   ........uocontro
0x7f23c10a90f4  6c 63 6c 69 65 6e 74 65 2d 70 63 00 00 00 00 00   lcliente-pc.....
0x7f23c10a9104  00 00 00 00 00 00 00 00 00 00 00 00 00 00 00 00   ................
0x7f23c10a9114  00 00 00 00 00 00 00 00 00 00 00 00 00 00 00 00   ................
0x7f23c10a9124  00 00 00 00 00 00 00 00 00 00 00 00 00 00 00 00   ................
0x7f23c10a9134  00 00 00 00 00 00 00 00 00 00 00 00 00 00 00 00   ................
0x7f23c10a9144  00 00 00 00 00 00 00 00 00 00 00 00 00 00 00 00   ................
0x7f23c10a9154  00 00 00 00 00 00 00 00 00 00 00 00 00 00 00 00   ................
0x7f23c10a9164  00 00 00 00 00 00 00 00 00 00 00 00 00 00 00 00   ................
0x7f23c10a9174  00 00 00 00 00 00 00 00 00 00 00 00 00 00 00 00   ................
0x7f23c10a9184  00 00 00 00 00 00 00 00 00 00 00 00 00 00 00 00   ................
0x7f23c10a9194  00 00 00 00 00 00 00 00 00 00 00 00 00 00 00 00   ................
0x7f23c10a91a4  00 00 00 00 00 00 00 00 00 00 00 00 00 00 00 00   ................
0x7f23c10a91b4  00 00 00 00 00 00 00 00 00 00 00 00 00 00 00 00   ................
0x7f23c10a91c4  00 00 00 00 00 00 00 00 00 00 00 00 00 00 00 00   ................
Task: smbd pid 2936 rule r1 addr 0x7f23c10a9534
0x7f23c10a9534  31 39 32 2e 31 36 38 2e 31 30 2e 32 30 30 00 00   192.168.10.200..
0x7f23c10a9544  00 00 00 00 00 00 00 00 75 6f 63 6f 6e 74 72 6f   ........uocontro
0x7f23c10a9554  6c 63 6c 69 65 6e 74 65 2d 70 63 00 00 00 00 00   lcliente-pc.....
0x7f23c10a9564  00 00 00 00 00 00 00 00 00 00 00 00 00 00 00 00   ................
0x7f23c10a9574  00 00 00 00 00 00 00 00 00 00 00 00 00 00 00 00   ................
0x7f23c10a9584  00 00 00 00 00 00 00 00 00 00 00 00 00 00 00 00   ................
0x7f23c10a9594  00 00 00 00 00 00 00 00 00 00 00 00 00 00 00 00   ................
0x7f23c10a95a4  00 00 00 00 00 00 00 00 00 00 00 00 00 00 00 00   ................
0x7f23c10a95b4  00 00 00 00 00 00 00 00 00 00 00 00 00 00 00 00   ................
0x7f23c10a95c4  00 00 00 00 00 00 00 00 00 00 00 00 00 00 00 00   ................
0x7f23c10a95d4  00 00 00 00 00 00 00 00 00 00 00 00 00 00 00 00   ................
0x7f23c10a95e4  00 00 00 00 00 00 00 00 00 00 00 00 00 00 00 00   ................
0x7f23c10a95f4  00 00 00 00 00 00 00 00 00 00 00 00 00 00 00 00   ................
0x7f23c10a9604  00 00 00 00 00 00 00 00 00 00 00 00 00 00 00 00   ................
0x7f23c10a9614  00 00 00 00 00 00 00 00 00 00 00 00 00 00 00 00   ................
0x7f23c10a9624  00 00 00 00 00 00 00 00 00 00 00 00 00 00 00 00   ................
Task: smbd pid 2936 rule r1 addr 0x7f23c10a9994
0x7f23c10a9994  31 39 32 2e 31 36 38 2e 31 30 2e 32 30 30 00 00   192.168.10.200..
0x7f23c10a99a4  00 00 00 00 00 00 00 00 00 00 00 00 00 00 00 00   ................
0x7f23c10a99b4  00 00 00 00 00 00 00 00 00 00 00 00 00 00 00 00   ................
0x7f23c10a99c4  00 00 00 00 00 00 00 00 00 00 00 00 00 00 00 00   ................
0x7f23c10a99d4  00 00 00 00 00 00 00 00 00 00 00 00 00 00 00 00   ................
0x7f23c10a99e4  00 00 00 00 00 00 00 00 00 00 00 00 00 00 00 00   ................
0x7f23c10a99f4  00 00 00 00 00 00 00 00 00 00 00 00 00 00 00 00   ................
0x7f23c10a9a04  00 00 00 00 00 00 00 00 00 00 00 00 00 00 00 00   ................
0x7f23c10a9a14  00 00 00 00 00 00 00 00 00 00 00 00 00 00 00 00   ................
0x7f23c10a9a24  00 00 00 00 00 00 00 00 00 00 00 00 00 00 00 00   ................
0x7f23c10a9a34  00 00 00 00 00 00 00 00 00 00 00 00 00 00 00 00   ................
0x7f23c10a9a44  00 00 00 00 00 00 00 00 00 00 00 00 00 00 00 00   ................
0x7f23c10a9a54  00 00 00 00 00 00 00 00 00 00 00 00 00 00 00 00   ................
0x7f23c10a9a64  00 00 00 00 00 00 00 00 00 00 00 00 00 00 00 00   ................
0x7f23c10a9a74  00 00 00 00 00 00 00 00 00 00 00 00 00 00 00 00   ................
0x7f23c10a9a84  00 00 00 00 00 00 00 00 00 00 00 00 00 00 00 00   ................
Task: smbd pid 2936 rule r1 addr 0x7f23c10a9df4
0x7f23c10a9df4  31 39 32 2e 31 36 38 2e 31 30 2e 32 30 30 00 00   192.168.10.200..
0x7f23c10a9e04  00 00 00 00 00 00 00 00 00 00 00 00 00 00 00 00   ................
0x7f23c10a9e14  00 00 00 00 00 00 00 00 00 00 00 00 00 00 00 00   ................
0x7f23c10a9e24  00 00 00 00 00 00 00 00 00 00 00 00 00 00 00 00   ................
0x7f23c10a9e34  00 00 00 00 00 00 00 00 00 00 00 00 00 00 00 00   ................
0x7f23c10a9e44  00 00 00 00 00 00 00 00 00 00 00 00 00 00 00 00   ................
0x7f23c10a9e54  00 00 00 00 00 00 00 00 00 00 00 00 00 00 00 00   ................
0x7f23c10a9e64  00 00 00 00 00 00 00 00 00 00 00 00 00 00 00 00   ................
0x7f23c10a9e74  00 00 00 00 00 00 00 00 00 00 00 00 00 00 00 00   ................
0x7f23c10a9e84  00 00 00 00 00 00 00 00 00 00 00 00 00 00 00 00   ................
0x7f23c10a9e94  00 00 00 00 00 00 00 00 00 00 00 00 00 00 00 00   ................
0x7f23c10a9ea4  00 00 00 00 00 00 00 00 00 00 00 00 00 00 00 00   ................
0x7f23c10a9eb4  00 00 00 00 00 00 00 00 00 00 00 00 00 00 00 00   ................
0x7f23c10a9ec4  00 00 00 00 00 00 00 00 00 00 00 00 00 00 00 00   ................
0x7f23c10a9ed4  00 00 00 00 00 00 00 00 00 00 00 00 00 00 00 00   ................
0x7f23c10a9ee4  00 00 00 00 00 00 00 00 00 00 00 00 00 00 00 00   ................
Task: smbd pid 2936 rule r1 addr 0x7f23c10db16c
0x7f23c10db16c  31 39 32 2e 31 36 38 2e 31 30 2e 32 30 30 00 00   192.168.10.200..
0x7f23c10db17c  00 00 00 00 00 00 00 00 00 00 00 00 00 00 00 00   ................
0x7f23c10db18c  00 00 00 00 00 00 00 00 00 00 00 00 00 00 00 00   ................
0x7f23c10db19c  00 00 00 00 00 00 00 00 00 00 00 00 00 00 00 00   ................
0x7f23c10db1ac  00 00 00 00 00 00 00 00 00 00 00 00 00 00 00 00   ................
0x7f23c10db1bc  00 00 00 00 00 00 00 00 00 00 00 00 00 00 00 00   ................
0x7f23c10db1cc  00 00 00 00 00 00 00 00 00 00 00 00 00 00 00 00   ................
0x7f23c10db1dc  00 00 00 00 00 00 00 00 00 00 00 00 00 00 00 00   ................
0x7f23c10db1ec  00 00 00 00 00 00 00 00 00 00 00 00 00 00 00 00   ................
0x7f23c10db1fc  00 00 00 00 00 00 00 00 00 00 00 00 00 00 00 00   ................
0x7f23c10db20c  00 00 00 00 00 00 00 00 00 00 00 00 00 00 00 00   ................
0x7f23c10db21c  00 00 00 00 00 00 00 00 00 00 00 00 00 00 00 00   ................
0x7f23c10db22c  00 00 00 00 00 00 00 00 00 00 00 00 00 00 00 00   ................
0x7f23c10db23c  00 00 00 00 00 00 00 00 00 00 00 00 00 00 00 00   ................
0x7f23c10db24c  00 00 00 00 00 00 00 00 00 00 00 00 00 00 00 00   ................
0x7f23c10db25c  00 00 00 00 00 00 00 00 00 00 00 00 00 00 00 00   ................
Task: smbd pid 2936 rule r1 addr 0x7f23c10db584
0x7f23c10db584  31 39 32 2e 31 36 38 2e 31 30 2e 32 30 30 00 00   192.168.10.200..
0x7f23c10db594  00 00 00 00 00 00 00 00 00 00 00 00 00 00 00 00   ................
0x7f23c10db5a4  00 00 00 00 00 00 00 00 00 00 00 00 00 00 00 00   ................
0x7f23c10db5b4  00 00 00 00 00 00 00 00 00 00 00 00 00 00 00 00   ................
0x7f23c10db5c4  00 00 00 00 00 00 00 00 00 00 00 00 00 00 00 00   ................
0x7f23c10db5d4  00 00 00 00 00 00 00 00 00 00 00 00 00 00 00 00   ................
0x7f23c10db5e4  00 00 00 00 00 00 00 00 00 00 00 00 00 00 00 00   ................
0x7f23c10db5f4  00 00 00 00 00 00 00 00 00 00 00 00 00 00 00 00   ................
0x7f23c10db604  00 00 00 00 00 00 00 00 00 00 00 00 00 00 00 00   ................
0x7f23c10db614  00 00 00 00 00 00 00 00 00 00 00 00 00 00 00 00   ................
0x7f23c10db624  00 00 00 00 00 00 00 00 00 00 00 00 00 00 00 00   ................
0x7f23c10db634  00 00 00 00 00 00 00 00 00 00 00 00 00 00 00 00   ................
0x7f23c10db644  00 00 00 00 00 00 00 00 00 00 00 00 00 00 00 00   ................
0x7f23c10db654  00 00 00 00 00 00 00 00 00 00 00 00 00 00 00 00   ................
0x7f23c10db664  00 00 00 00 00 00 00 00 00 00 00 00 00 00 00 00   ................
0x7f23c10db674  00 00 00 00 00 00 00 00 00 00 00 00 00 00 00 00   ................
Task: smbd pid 2936 rule r1 addr 0x7f23c10db94c
0x7f23c10db94c  31 39 32 2e 31 36 38 2e 31 30 2e 32 30 30 00 00   192.168.10.200..
0x7f23c10db95c  00 00 00 00 00 00 00 00 00 00 00 00 00 00 00 00   ................
0x7f23c10db96c  00 00 00 00 00 00 00 00 00 00 00 00 00 00 00 00   ................
0x7f23c10db97c  00 00 00 00 00 00 00 00 00 00 00 00 00 00 00 00   ................
0x7f23c10db98c  00 00 00 00 00 00 00 00 00 00 00 00 00 00 00 00   ................
0x7f23c10db99c  00 00 00 00 00 00 00 00 00 00 00 00 00 00 00 00   ................
0x7f23c10db9ac  00 00 00 00 00 00 00 00 00 00 00 00 00 00 00 00   ................
0x7f23c10db9bc  00 00 00 00 00 00 00 00 00 00 00 00 00 00 00 00   ................
0x7f23c10db9cc  00 00 00 00 00 00 00 00 00 00 00 00 00 00 00 00   ................
0x7f23c10db9dc  00 00 00 00 00 00 00 00 00 00 00 00 00 00 00 00   ................
0x7f23c10db9ec  00 00 00 00 00 00 00 00 00 00 00 00 00 00 00 00   ................
0x7f23c10db9fc  00 00 00 00 00 00 00 00 00 00 00 00 00 00 00 00   ................
0x7f23c10dba0c  00 00 00 00 00 00 00 00 00 00 00 00 00 00 00 00   ................
0x7f23c10dba1c  00 00 00 00 00 00 00 00 00 00 00 00 00 00 00 00   ................
0x7f23c10dba2c  00 00 00 00 00 00 00 00 00 00 00 00 00 00 00 00   ................
0x7f23c10dba3c  00 00 00 00 00 00 00 00 00 00 00 00 00 00 00 00   ................
Task: smbd pid 2936 rule r1 addr 0x7f23c10dbd64
0x7f23c10dbd64  31 39 32 2e 31 36 38 2e 31 30 2e 32 30 30 00 00   192.168.10.200..
0x7f23c10dbd74  00 00 00 00 00 00 00 00 00 00 00 00 00 00 00 00   ................
0x7f23c10dbd84  00 00 00 00 00 00 00 00 00 00 00 00 00 00 00 00   ................
0x7f23c10dbd94  00 00 00 00 00 00 00 00 00 00 00 00 00 00 00 00   ................
0x7f23c10dbda4  00 00 00 00 00 00 00 00 00 00 00 00 00 00 00 00   ................
0x7f23c10dbdb4  00 00 00 00 00 00 00 00 00 00 00 00 00 00 00 00   ................
0x7f23c10dbdc4  00 00 00 00 00 00 00 00 00 00 00 00 00 00 00 00   ................
0x7f23c10dbdd4  00 00 00 00 00 00 00 00 00 00 00 00 00 00 00 00   ................
0x7f23c10dbde4  00 00 00 00 00 00 00 00 00 00 00 00 00 00 00 00   ................
0x7f23c10dbdf4  00 00 00 00 00 00 00 00 00 00 00 00 00 00 00 00   ................
0x7f23c10dbe04  00 00 00 00 00 00 00 00 00 00 00 00 00 00 00 00   ................
0x7f23c10dbe14  00 00 00 00 00 00 00 00 00 00 00 00 00 00 00 00   ................
0x7f23c10dbe24  00 00 00 00 00 00 00 00 00 00 00 00 00 00 00 00   ................
0x7f23c10dbe34  00 00 00 00 00 00 00 00 00 00 00 00 00 00 00 00   ................
0x7f23c10dbe44  00 00 00 00 00 00 00 00 00 00 00 00 00 00 00 00   ................
0x7f23c10dbe54  00 00 00 00 00 00 00 00 00 00 00 00 00 00 00 00   ................
Task: smbd pid 2936 rule r1 addr 0x7f23c1d7d580
0x7f23c1d7d580  31 39 32 2e 31 36 38 2e 31 30 2e 32 30 30 00 00   192.168.10.200..
0x7f23c1d7d590  00 00 00 00 00 00 00 00 00 00 00 00 00 00 00 00   ................
0x7f23c1d7d5a0  00 00 00 00 00 00 00 00 00 00 00 00 00 00 00 00   ................
0x7f23c1d7d5b0  90 b2 6c c2 23 7f 00 00 00 00 00 00 00 00 00 00   ..l.#...........
0x7f23c1d7d5c0  31 39 32 2e 31 36 38 2e 31 30 2e 32 00 00 00 00   192.168.10.2....
0x7f23c1d7d5d0  00 00 00 00 00 00 00 00 00 00 00 00 00 00 00 00   ................
0x7f23c1d7d5e0  00 00 00 00 00 00 00 00 00 00 00 00 00 00 00 00   ................
0x7f23c1d7d5f0  00 00 00 00 00 00 00 00 01 00 00 00 00 00 00 00   ................
0x7f23c1d7d600  00 00 00 00 00 00 00 00 00 00 00 00 00 00 00 00   ................
0x7f23c1d7d610  00 00 00 00 00 00 00 00 f0 27 6c c2 23 7f 00 00   .........'l.#...
0x7f23c1d7d620  f0 c4 6c c2 23 7f 00 00 06 00 00 00 00 00 00 00   ..l.#...........
0x7f23c1d7d630  20 c2 6c c2 23 7f 00 00 e0 21 6c c2 23 7f 00 00   ..l.#....!l.#...
0x7f23c1d7d640  01 00 00 00 00 00 00 00 a0 a4 6b c2 23 7f 00 00   ..........k.#...
0x7f23c1d7d650  d0 a1 6b c2 23 7f 00 00 00 00 00 00 00 00 00 00   ..k.#...........
0x7f23c1d7d660  e0 da 6b c2 23 7f 00 00 10 d5 6b c2 23 7f 00 00   ..k.#.....k.#...
0x7f23c1d7d670  20 a5 6b c2 23 7f 00 00 00 00 00 00 00 00 00 00   ..k.#...........
Task: smbd pid 2936 rule r1 addr 0x7f23c1d7d5c0
0x7f23c1d7d5c0  31 39 32 2e 31 36 38 2e 31 30 2e 32 00 00 00 00   192.168.10.2....
0x7f23c1d7d5d0  00 00 00 00 00 00 00 00 00 00 00 00 00 00 00 00   ................
0x7f23c1d7d5e0  00 00 00 00 00 00 00 00 00 00 00 00 00 00 00 00   ................
0x7f23c1d7d5f0  00 00 00 00 00 00 00 00 01 00 00 00 00 00 00 00   ................
0x7f23c1d7d600  00 00 00 00 00 00 00 00 00 00 00 00 00 00 00 00   ................
0x7f23c1d7d610  00 00 00 00 00 00 00 00 f0 27 6c c2 23 7f 00 00   .........'l.#...
0x7f23c1d7d620  f0 c4 6c c2 23 7f 00 00 06 00 00 00 00 00 00 00   ..l.#...........
0x7f23c1d7d630  20 c2 6c c2 23 7f 00 00 e0 21 6c c2 23 7f 00 00   ..l.#....!l.#...
0x7f23c1d7d640  01 00 00 00 00 00 00 00 a0 a4 6b c2 23 7f 00 00   ..........k.#...
0x7f23c1d7d650  d0 a1 6b c2 23 7f 00 00 00 00 00 00 00 00 00 00   ..k.#...........
0x7f23c1d7d660  e0 da 6b c2 23 7f 00 00 10 d5 6b c2 23 7f 00 00   ..k.#.....k.#...
0x7f23c1d7d670  20 a5 6b c2 23 7f 00 00 00 00 00 00 00 00 00 00   ..k.#...........
0x7f23c1d7d680  00 00 00 00 00 00 00 00 00 00 00 00 00 00 00 00   ................
0x7f23c1d7d690  00 00 00 00 00 00 00 00 00 00 00 00 00 00 00 00   ................
0x7f23c1d7d6a0  00 00 00 00 00 00 00 00 00 00 00 00 00 00 00 00   ................
0x7f23c1d7d6b0  00 00 00 00 00 00 00 00 00 00 00 00 00 00 00 00   ................
Task: smbd pid 2936 rule r1 addr 0x7f23c26ba5e8
0x7f23c26ba5e8  31 39 32 2e 31 36 38 2e 31 30 2e 32 30 30 00 00   192.168.10.200..
0x7f23c26ba5f8  00 00 00 00 00 00 00 00 00 00 00 00 00 00 00 00   ................
0x7f23c26ba608  00 00 00 00 00 00 00 00 00 00 00 00 00 00 00 00   ................
0x7f23c26ba618  60 1f 6c c2 23 7f 00 00 70 d6 6b c2 23 7f 00 00   `.l.#...p.k.#...
0x7f23c26ba628  30 14 6c c2 23 7f 00 00 10 d5 6b c2 23 7f 00 00   0.l.#.....k.#...
0x7f23c26ba638  00 00 00 00 7c 01 00 00 30 4b 6c c2 23 7f 00 00   ....|...0Kl.#...
0x7f23c26ba648  00 00 00 00 00 00 00 00 f0 b1 6c c2 23 7f 00 00   ..........l.#...
0x7f23c26ba658  00 40 00 00 00 00 00 00 00 00 00 00 00 00 00 00   .@..............
0x7f23c26ba668  01 08 00 00 00 00 00 00 49 a7 00 00 00 00 00 00   ........I.......
0x7f23c26ba678  00 00 00 00 00 00 00 00 3e 00 00 00 00 00 00 00   ........>.......
0x7f23c26ba688  85 1c 00 00 01 00 00 00 60 4f 6c c2 23 7f 00 00   ........`Ol.#...
0x7f23c26ba698  00 00 00 00 00 00 00 00 00 00 00 00 00 00 00 00   ................
0x7f23c26ba6a8  7c 01 00 00 00 00 00 00 40 b9 6c c2 23 7f 00 00   |.......@.l.#...
0x7f23c26ba6b8  ff ff ff ff ff ff ff ff 00 00 00 00 00 00 00 00   ................
0x7f23c26ba6c8  00 00 00 00 00 00 00 00 01 01 00 00 00 00 00 00   ................
0x7f23c26ba6d8  00 00 00 00 00 00 00 00 01 00 00 00 04 41 00 00   .............A..
Task: smbd pid 2936 rule r1 addr 0x7f23c26c1f60
0x7f23c26c1f60  31 39 32 2e 31 36 38 2e 31 30 2e 32 30 30 00 4f   192.168.10.200.O
0x7f23c26c1f70  70 00 00 00 00 00 00 00 31 00 00 00 00 00 00 00   p.......1.......
0x7f23c26c1f80  2f 76 61 72 2f 72 75 6e 2f 73 61 6d 62 61 2f 73   /var/run/samba/s
0x7f23c26c1f90  65 73 73 69 6f 6e 69 64 2e 74 64 62 00 00 00 00   essionid.tdb....
0x7f23c26c1fa0  61 74 69 6f 6e 20 61 6e 31 00 00 00 00 00 00 00   ation.an1.......
0x7f23c26c1fb0  2f 76 61 72 2f 6c 69 62 2f 73 61 6d 62 61 2f 70   /var/lib/samba/p
0x7f23c26c1fc0  61 73 73 64 62 2e 74 64 62 00 00 00 00 00 00 00   assdb.tdb.......
0x7f23c26c1fd0  20 20 20 6d 65 73 73 61 31 00 00 00 00 00 00 00   ...messa1.......
0x7f23c26c1fe0  2f 76 61 72 2f 72 75 6e 2f 73 61 6d 62 61 2f 6e   /var/run/samba/n
0x7f23c26c1ff0  6f 74 69 66 79 2e 74 64 62 00 00 00 00 10 00 00   otify.tdb.......
0x7f23c26c2000  00 00 00 00 00 00 00 00 81 01 00 00 00 00 00 00   ................
0x7f23c26c2010  50 9e 6d c2 23 7f 00 00 00 20 6d c2 23 7f 00 00   P.m.#.....m.#...
0x7f23c26c2020  00 00 00 00 00 00 00 00 f0 44 6c c2 23 7f 00 00   .........Dl.#...
0x7f23c26c2030  00 00 00 00 00 00 00 00 00 00 00 00 00 00 00 00   ................
0x7f23c26c2040  d5 2e 94 c1 23 7f 00 00 28 01 00 00 00 00 00 00   ....#...(.......
0x7f23c26c2050  70 0c 15 e8 00 00 00 00 00 00 00 00 00 00 00 00   p...............
Task: smbd pid 2936 rule r1 addr 0x7f23c26c5270
0x7f23c26c5270  31 39 32 2e 31 36 38 2e 31 30 2e 32 30 30 00 00   192.168.10.200..
0x7f23c26c5280  40 00 00 00 00 00 00 00 c1 00 00 00 00 00 00 00   @...............
0x7f23c26c5290  90 40 6c c2 23 7f 00 00 80 5c 6c c2 23 7f 00 00   .@l.#....\l.#...
0x7f23c26c52a0  00 00 00 00 00 00 00 00 40 51 6c c2 23 7f 00 00   ........@Ql.#...
0x7f23c26c52b0  00 00 00 00 00 00 00 00 00 00 00 00 00 00 00 00   ................
0x7f23c26c52c0  ae f7 9d c1 23 7f 00 00 60 00 00 00 00 00 00 00   ....#...`.......
0x7f23c26c52d0  70 0c 15 e8 00 00 00 00 00 00 00 00 00 00 00 00   p...............
0x7f23c26c52e0  30 69 5f c1 23 7f 00 00 d0 64 5f c1 23 7f 00 00   0i_.#....d_.#...
0x7f23c26c52f0  e0 65 5f c1 23 7f 00 00 70 65 5f c1 23 7f 00 00   .e_.#...pe_.#...
0x7f23c26c5300  50 64 5f c1 23 7f 00 00 20 64 5f c1 23 7f 00 00   Pd_.#....d_.#...
0x7f23c26c5310  f0 63 5f c1 23 7f 00 00 c0 63 5f c1 23 7f 00 00   .c_.#....c_.#...
0x7f23c26c5320  90 63 5f c1 23 7f 00 00 80 64 5f c1 23 7f 00 00   .c_.#....d_.#...
0x7f23c26c5330  90 51 6c c2 23 7f 00 00 00 00 00 00 00 00 00 00   .Ql.#...........
0x7f23c26c5340  00 00 00 00 00 00 00 00 61 00 00 00 00 00 00 00   ........a.......
0x7f23c26c5350  00 00 00 00 00 00 00 00 00 00 00 00 00 00 00 00   ................
0x7f23c26c5360  40 51 6c c2 23 7f 00 00 b0 53 6c c2 23 7f 00 00   @Ql.#....Sl.#...
Task: smbd pid 2936 rule r1 addr 0x7f23c26c7bf7
0x7f23c26c7bf7  31 39 32 2e 31 36 38 2e 31 30 2e 32 30 30 00 69   192.168.10.200.i
0x7f23c26c7c07  62 2f 73 61 6d 62 61 00 00 f0 00 00 00 00 00 00   b/samba.........
0x7f23c26c7c17  00 41 00 00 00 00 00 00 00 50 8c 6c c2 23 7f 00   .A.......P.l.#..
0x7f23c26c7c27  00 a0 83 6c c2 23 7f 00 00 38 7c 6c c2 23 7f 00   ...l.#...8|l.#..
0x7f23c26c7c37  00 67 72 6f 75 70 00 00 00 00 00 00 00 00 00 00   .group..........
0x7f23c26c7c47  00 00 00 00 00 00 00 00 00 40 00 00 00 00 00 00   .........@......
0x7f23c26c7c57  00 61 00 00 00 00 00 00 00 60 e7 6c c2 23 7f 00   .a.......`.l.#..
0x7f23c26c7c67  00 00 00 00 00 00 00 00 00 00 00 00 00 00 00 00   ................
0x7f23c26c7c77  00 20 7d 6c c2 23 7f 00 00 c0 7c 6c c2 23 7f 00   ..}l.#....|l.#..
0x7f23c26c7c87  00 10 00 00 00 00 00 00 00 04 00 00 00 00 00 00   ................
0x7f23c26c7c97  00 04 01 02 00 00 00 00 00 16 02 00 00 00 e9 03   ................
0x7f23c26c7ca7  00 00 e9 03 00 00 00 00 00 2f 76 61 72 2f 63 61   ........./var/ca
0x7f23c26c7cb7  63 61 00 00 00 00 00 00 00 c0 e7 6c c2 23 7f 00   ca.........l.#..
0x7f23c26c7cc7  00 00 00 00 00 00 00 00 00 00 00 00 00 00 00 00   ................
0x7f23c26c7cd7  00 60 7c 6c c2 23 7f 00 00 10 76 6d c2 23 7f 00   .`|l.#....vm.#..
0x7f23c26c7ce7  00 04 00 00 00 00 00 00 00 10 00 00 00 00 00 00   ................
Task: smbd pid 2936 rule r1 addr 0x7f23c26cb290
0x7f23c26cb290  31 39 32 2e 31 36 38 2e 31 30 2e 32 30 30 00 00   192.168.10.200..
0x7f23c26cb2a0  20 00 00 00 00 00 00 00 31 00 00 00 00 00 00 00   ........1.......
0x7f23c26cb2b0  c0 29 6c c2 23 7f 00 00 00 00 00 00 00 00 00 00   .)l.#...........
0x7f23c26cb2c0  00 00 00 00 00 00 00 00 75 02 00 00 01 00 00 00   ........u.......
0x7f23c26cb2d0  30 00 00 00 00 00 00 00 61 00 00 00 00 00 00 00   0.......a.......
0x7f23c26cb2e0  00 00 00 00 00 00 00 00 00 00 00 00 00 00 00 00   ................
0x7f23c26cb2f0  00 b0 6c c2 23 7f 00 00 20 bb 6c c2 23 7f 00 00   ..l.#.....l.#...
0x7f23c26cb300  00 00 00 00 00 00 00 00 00 00 00 00 00 00 00 00   ................
0x7f23c26cb310  6b f4 9d c1 23 7f 00 00 08 00 00 00 00 00 00 00   k...#...........
0x7f23c26cb320  70 0c 15 e8 00 00 00 00 00 00 00 00 00 00 00 00   p...............
0x7f23c26cb330  80 da 6c c2 23 7f 00 00 31 00 00 00 00 00 00 00   ..l.#...1.......
0x7f23c26cb340  00 00 00 00 01 00 00 00 00 00 00 00 00 00 00 00   ................
0x7f23c26cb350  00 00 00 00 00 00 00 00 00 00 00 00 00 00 00 00   ................
0x7f23c26cb360  00 00 00 00 00 00 00 00 31 00 00 00 00 00 00 00   ........1.......
0x7f23c26cb370  f0 ea 6c c2 23 7f 00 00 60 d3 6c c2 23 7f 00 00   ..l.#...`.l.#...
0x7f23c26cb380  60 d3 6c c2 23 7f 00 00 40 66 d7 c1 23 7f 00 00   `.l.#...@f..#...
Task: smbd pid 2939 rule r1 addr 0x7f23c10a90d4
0x7f23c10a90d4  31 39 32 2e 31 36 38 2e 31 30 2e 32 30 30 00 00   192.168.10.200..
0x7f23c10a90e4  00 00 00 00 00 00 00 00 75 6f 63 6f 6e 74 72 6f   ........uocontro
0x7f23c10a90f4  6c 63 6c 69 65 6e 74 65 2d 70 63 00 00 00 00 00   lcliente-pc.....
0x7f23c10a9104  00 00 00 00 00 00 00 00 00 00 00 00 00 00 00 00   ................
0x7f23c10a9114  00 00 00 00 00 00 00 00 00 00 00 00 00 00 00 00   ................
0x7f23c10a9124  00 00 00 00 00 00 00 00 00 00 00 00 00 00 00 00   ................
0x7f23c10a9134  00 00 00 00 00 00 00 00 00 00 00 00 00 00 00 00   ................
0x7f23c10a9144  00 00 00 00 00 00 00 00 00 00 00 00 00 00 00 00   ................
0x7f23c10a9154  00 00 00 00 00 00 00 00 00 00 00 00 00 00 00 00   ................
0x7f23c10a9164  00 00 00 00 00 00 00 00 00 00 00 00 00 00 00 00   ................
0x7f23c10a9174  00 00 00 00 00 00 00 00 00 00 00 00 00 00 00 00   ................
0x7f23c10a9184  00 00 00 00 00 00 00 00 00 00 00 00 00 00 00 00   ................
0x7f23c10a9194  00 00 00 00 00 00 00 00 00 00 00 00 00 00 00 00   ................
0x7f23c10a91a4  00 00 00 00 00 00 00 00 00 00 00 00 00 00 00 00   ................
0x7f23c10a91b4  00 00 00 00 00 00 00 00 00 00 00 00 00 00 00 00   ................
0x7f23c10a91c4  00 00 00 00 00 00 00 00 00 00 00 00 00 00 00 00   ................
Task: smbd pid 2939 rule r1 addr 0x7f23c10a9534
0x7f23c10a9534  31 39 32 2e 31 36 38 2e 31 30 2e 32 30 30 00 00   192.168.10.200..
0x7f23c10a9544  00 00 00 00 00 00 00 00 75 6f 63 6f 6e 74 72 6f   ........uocontro
0x7f23c10a9554  6c 63 6c 69 65 6e 74 65 2d 70 63 00 00 00 00 00   lcliente-pc.....
0x7f23c10a9564  00 00 00 00 00 00 00 00 00 00 00 00 00 00 00 00   ................
0x7f23c10a9574  00 00 00 00 00 00 00 00 00 00 00 00 00 00 00 00   ................
0x7f23c10a9584  00 00 00 00 00 00 00 00 00 00 00 00 00 00 00 00   ................
0x7f23c10a9594  00 00 00 00 00 00 00 00 00 00 00 00 00 00 00 00   ................
0x7f23c10a95a4  00 00 00 00 00 00 00 00 00 00 00 00 00 00 00 00   ................
0x7f23c10a95b4  00 00 00 00 00 00 00 00 00 00 00 00 00 00 00 00   ................
0x7f23c10a95c4  00 00 00 00 00 00 00 00 00 00 00 00 00 00 00 00   ................
0x7f23c10a95d4  00 00 00 00 00 00 00 00 00 00 00 00 00 00 00 00   ................
0x7f23c10a95e4  00 00 00 00 00 00 00 00 00 00 00 00 00 00 00 00   ................
0x7f23c10a95f4  00 00 00 00 00 00 00 00 00 00 00 00 00 00 00 00   ................
0x7f23c10a9604  00 00 00 00 00 00 00 00 00 00 00 00 00 00 00 00   ................
0x7f23c10a9614  00 00 00 00 00 00 00 00 00 00 00 00 00 00 00 00   ................
0x7f23c10a9624  00 00 00 00 00 00 00 00 00 00 00 00 00 00 00 00   ................
Task: smbd pid 2939 rule r1 addr 0x7f23c10a9994
0x7f23c10a9994  31 39 32 2e 31 36 38 2e 31 30 2e 32 30 30 00 00   192.168.10.200..
0x7f23c10a99a4  00 00 00 00 00 00 00 00 00 00 00 00 00 00 00 00   ................
0x7f23c10a99b4  00 00 00 00 00 00 00 00 00 00 00 00 00 00 00 00   ................
0x7f23c10a99c4  00 00 00 00 00 00 00 00 00 00 00 00 00 00 00 00   ................
0x7f23c10a99d4  00 00 00 00 00 00 00 00 00 00 00 00 00 00 00 00   ................
0x7f23c10a99e4  00 00 00 00 00 00 00 00 00 00 00 00 00 00 00 00   ................
0x7f23c10a99f4  00 00 00 00 00 00 00 00 00 00 00 00 00 00 00 00   ................
0x7f23c10a9a04  00 00 00 00 00 00 00 00 00 00 00 00 00 00 00 00   ................
0x7f23c10a9a14  00 00 00 00 00 00 00 00 00 00 00 00 00 00 00 00   ................
0x7f23c10a9a24  00 00 00 00 00 00 00 00 00 00 00 00 00 00 00 00   ................
0x7f23c10a9a34  00 00 00 00 00 00 00 00 00 00 00 00 00 00 00 00   ................
0x7f23c10a9a44  00 00 00 00 00 00 00 00 00 00 00 00 00 00 00 00   ................
0x7f23c10a9a54  00 00 00 00 00 00 00 00 00 00 00 00 00 00 00 00   ................
0x7f23c10a9a64  00 00 00 00 00 00 00 00 00 00 00 00 00 00 00 00   ................
0x7f23c10a9a74  00 00 00 00 00 00 00 00 00 00 00 00 00 00 00 00   ................
0x7f23c10a9a84  00 00 00 00 00 00 00 00 00 00 00 00 00 00 00 00   ................
Task: smbd pid 2939 rule r1 addr 0x7f23c10a9df4
0x7f23c10a9df4  31 39 32 2e 31 36 38 2e 31 30 2e 32 30 30 00 00   192.168.10.200..
0x7f23c10a9e04  00 00 00 00 00 00 00 00 00 00 00 00 00 00 00 00   ................
0x7f23c10a9e14  00 00 00 00 00 00 00 00 00 00 00 00 00 00 00 00   ................
0x7f23c10a9e24  00 00 00 00 00 00 00 00 00 00 00 00 00 00 00 00   ................
0x7f23c10a9e34  00 00 00 00 00 00 00 00 00 00 00 00 00 00 00 00   ................
0x7f23c10a9e44  00 00 00 00 00 00 00 00 00 00 00 00 00 00 00 00   ................
0x7f23c10a9e54  00 00 00 00 00 00 00 00 00 00 00 00 00 00 00 00   ................
0x7f23c10a9e64  00 00 00 00 00 00 00 00 00 00 00 00 00 00 00 00   ................
0x7f23c10a9e74  00 00 00 00 00 00 00 00 00 00 00 00 00 00 00 00   ................
0x7f23c10a9e84  00 00 00 00 00 00 00 00 00 00 00 00 00 00 00 00   ................
0x7f23c10a9e94  00 00 00 00 00 00 00 00 00 00 00 00 00 00 00 00   ................
0x7f23c10a9ea4  00 00 00 00 00 00 00 00 00 00 00 00 00 00 00 00   ................
0x7f23c10a9eb4  00 00 00 00 00 00 00 00 00 00 00 00 00 00 00 00   ................
0x7f23c10a9ec4  00 00 00 00 00 00 00 00 00 00 00 00 00 00 00 00   ................
0x7f23c10a9ed4  00 00 00 00 00 00 00 00 00 00 00 00 00 00 00 00   ................
0x7f23c10a9ee4  00 00 00 00 00 00 00 00 00 00 00 00 00 00 00 00   ................
Task: smbd pid 2939 rule r1 addr 0x7f23c10db16c
0x7f23c10db16c  31 39 32 2e 31 36 38 2e 31 30 2e 32 30 30 00 00   192.168.10.200..
0x7f23c10db17c  00 00 00 00 00 00 00 00 00 00 00 00 00 00 00 00   ................
0x7f23c10db18c  00 00 00 00 00 00 00 00 00 00 00 00 00 00 00 00   ................
0x7f23c10db19c  00 00 00 00 00 00 00 00 00 00 00 00 00 00 00 00   ................
0x7f23c10db1ac  00 00 00 00 00 00 00 00 00 00 00 00 00 00 00 00   ................
0x7f23c10db1bc  00 00 00 00 00 00 00 00 00 00 00 00 00 00 00 00   ................
0x7f23c10db1cc  00 00 00 00 00 00 00 00 00 00 00 00 00 00 00 00   ................
0x7f23c10db1dc  00 00 00 00 00 00 00 00 00 00 00 00 00 00 00 00   ................
0x7f23c10db1ec  00 00 00 00 00 00 00 00 00 00 00 00 00 00 00 00   ................
0x7f23c10db1fc  00 00 00 00 00 00 00 00 00 00 00 00 00 00 00 00   ................
0x7f23c10db20c  00 00 00 00 00 00 00 00 00 00 00 00 00 00 00 00   ................
0x7f23c10db21c  00 00 00 00 00 00 00 00 00 00 00 00 00 00 00 00   ................
0x7f23c10db22c  00 00 00 00 00 00 00 00 00 00 00 00 00 00 00 00   ................
0x7f23c10db23c  00 00 00 00 00 00 00 00 00 00 00 00 00 00 00 00   ................
0x7f23c10db24c  00 00 00 00 00 00 00 00 00 00 00 00 00 00 00 00   ................
0x7f23c10db25c  00 00 00 00 00 00 00 00 00 00 00 00 00 00 00 00   ................
Task: smbd pid 2939 rule r1 addr 0x7f23c10db584
0x7f23c10db584  31 39 32 2e 31 36 38 2e 31 30 2e 32 30 30 00 00   192.168.10.200..
0x7f23c10db594  00 00 00 00 00 00 00 00 00 00 00 00 00 00 00 00   ................
0x7f23c10db5a4  00 00 00 00 00 00 00 00 00 00 00 00 00 00 00 00   ................
0x7f23c10db5b4  00 00 00 00 00 00 00 00 00 00 00 00 00 00 00 00   ................
0x7f23c10db5c4  00 00 00 00 00 00 00 00 00 00 00 00 00 00 00 00   ................
0x7f23c10db5d4  00 00 00 00 00 00 00 00 00 00 00 00 00 00 00 00   ................
0x7f23c10db5e4  00 00 00 00 00 00 00 00 00 00 00 00 00 00 00 00   ................
0x7f23c10db5f4  00 00 00 00 00 00 00 00 00 00 00 00 00 00 00 00   ................
0x7f23c10db604  00 00 00 00 00 00 00 00 00 00 00 00 00 00 00 00   ................
0x7f23c10db614  00 00 00 00 00 00 00 00 00 00 00 00 00 00 00 00   ................
0x7f23c10db624  00 00 00 00 00 00 00 00 00 00 00 00 00 00 00 00   ................
0x7f23c10db634  00 00 00 00 00 00 00 00 00 00 00 00 00 00 00 00   ................
0x7f23c10db644  00 00 00 00 00 00 00 00 00 00 00 00 00 00 00 00   ................
0x7f23c10db654  00 00 00 00 00 00 00 00 00 00 00 00 00 00 00 00   ................
0x7f23c10db664  00 00 00 00 00 00 00 00 00 00 00 00 00 00 00 00   ................
0x7f23c10db674  00 00 00 00 00 00 00 00 00 00 00 00 00 00 00 00   ................
Task: smbd pid 2939 rule r1 addr 0x7f23c10db94c
0x7f23c10db94c  31 39 32 2e 31 36 38 2e 31 30 2e 32 30 30 00 00   192.168.10.200..
0x7f23c10db95c  00 00 00 00 00 00 00 00 00 00 00 00 00 00 00 00   ................
0x7f23c10db96c  00 00 00 00 00 00 00 00 00 00 00 00 00 00 00 00   ................
0x7f23c10db97c  00 00 00 00 00 00 00 00 00 00 00 00 00 00 00 00   ................
0x7f23c10db98c  00 00 00 00 00 00 00 00 00 00 00 00 00 00 00 00   ................
0x7f23c10db99c  00 00 00 00 00 00 00 00 00 00 00 00 00 00 00 00   ................
0x7f23c10db9ac  00 00 00 00 00 00 00 00 00 00 00 00 00 00 00 00   ................
0x7f23c10db9bc  00 00 00 00 00 00 00 00 00 00 00 00 00 00 00 00   ................
0x7f23c10db9cc  00 00 00 00 00 00 00 00 00 00 00 00 00 00 00 00   ................
0x7f23c10db9dc  00 00 00 00 00 00 00 00 00 00 00 00 00 00 00 00   ................
0x7f23c10db9ec  00 00 00 00 00 00 00 00 00 00 00 00 00 00 00 00   ................
0x7f23c10db9fc  00 00 00 00 00 00 00 00 00 00 00 00 00 00 00 00   ................
0x7f23c10dba0c  00 00 00 00 00 00 00 00 00 00 00 00 00 00 00 00   ................
0x7f23c10dba1c  00 00 00 00 00 00 00 00 00 00 00 00 00 00 00 00   ................
0x7f23c10dba2c  00 00 00 00 00 00 00 00 00 00 00 00 00 00 00 00   ................
0x7f23c10dba3c  00 00 00 00 00 00 00 00 00 00 00 00 00 00 00 00   ................
Task: smbd pid 2939 rule r1 addr 0x7f23c10dbd64
0x7f23c10dbd64  31 39 32 2e 31 36 38 2e 31 30 2e 32 30 30 00 00   192.168.10.200..
0x7f23c10dbd74  00 00 00 00 00 00 00 00 00 00 00 00 00 00 00 00   ................
0x7f23c10dbd84  00 00 00 00 00 00 00 00 00 00 00 00 00 00 00 00   ................
0x7f23c10dbd94  00 00 00 00 00 00 00 00 00 00 00 00 00 00 00 00   ................
0x7f23c10dbda4  00 00 00 00 00 00 00 00 00 00 00 00 00 00 00 00   ................
0x7f23c10dbdb4  00 00 00 00 00 00 00 00 00 00 00 00 00 00 00 00   ................
0x7f23c10dbdc4  00 00 00 00 00 00 00 00 00 00 00 00 00 00 00 00   ................
0x7f23c10dbdd4  00 00 00 00 00 00 00 00 00 00 00 00 00 00 00 00   ................
0x7f23c10dbde4  00 00 00 00 00 00 00 00 00 00 00 00 00 00 00 00   ................
0x7f23c10dbdf4  00 00 00 00 00 00 00 00 00 00 00 00 00 00 00 00   ................
0x7f23c10dbe04  00 00 00 00 00 00 00 00 00 00 00 00 00 00 00 00   ................
0x7f23c10dbe14  00 00 00 00 00 00 00 00 00 00 00 00 00 00 00 00   ................
0x7f23c10dbe24  00 00 00 00 00 00 00 00 00 00 00 00 00 00 00 00   ................
0x7f23c10dbe34  00 00 00 00 00 00 00 00 00 00 00 00 00 00 00 00   ................
0x7f23c10dbe44  00 00 00 00 00 00 00 00 00 00 00 00 00 00 00 00   ................
0x7f23c10dbe54  00 00 00 00 00 00 00 00 00 00 00 00 00 00 00 00   ................
Task: smbd pid 2939 rule r1 addr 0x7f23c1d7d580
0x7f23c1d7d580  31 39 32 2e 31 36 38 2e 31 30 2e 32 30 30 00 00   192.168.10.200..
0x7f23c1d7d590  00 00 00 00 00 00 00 00 00 00 00 00 00 00 00 00   ................
0x7f23c1d7d5a0  00 00 00 00 00 00 00 00 00 00 00 00 00 00 00 00   ................
0x7f23c1d7d5b0  90 b2 6c c2 23 7f 00 00 00 00 00 00 00 00 00 00   ..l.#...........
0x7f23c1d7d5c0  31 39 32 2e 31 36 38 2e 31 30 2e 32 00 00 00 00   192.168.10.2....
0x7f23c1d7d5d0  00 00 00 00 00 00 00 00 00 00 00 00 00 00 00 00   ................
0x7f23c1d7d5e0  00 00 00 00 00 00 00 00 00 00 00 00 00 00 00 00   ................
0x7f23c1d7d5f0  00 00 00 00 00 00 00 00 01 00 00 00 00 00 00 00   ................
0x7f23c1d7d600  00 00 00 00 00 00 00 00 00 00 00 00 00 00 00 00   ................
0x7f23c1d7d610  00 00 00 00 00 00 00 00 f0 27 6c c2 23 7f 00 00   .........'l.#...
0x7f23c1d7d620  f0 c4 6c c2 23 7f 00 00 0c 00 00 00 00 00 00 00   ..l.#...........
0x7f23c1d7d630  20 c2 6c c2 23 7f 00 00 e0 21 6c c2 23 7f 00 00   ..l.#....!l.#...
0x7f23c1d7d640  01 00 00 00 00 00 00 00 a0 a4 6b c2 23 7f 00 00   ..........k.#...
0x7f23c1d7d650  d0 a1 6b c2 23 7f 00 00 00 00 00 00 00 00 00 00   ..k.#...........
0x7f23c1d7d660  e0 da 6b c2 23 7f 00 00 10 d5 6b c2 23 7f 00 00   ..k.#.....k.#...
0x7f23c1d7d670  20 a5 6b c2 23 7f 00 00 00 00 00 00 00 00 00 00   ..k.#...........
Task: smbd pid 2939 rule r1 addr 0x7f23c1d7d5c0
0x7f23c1d7d5c0  31 39 32 2e 31 36 38 2e 31 30 2e 32 00 00 00 00   192.168.10.2....
0x7f23c1d7d5d0  00 00 00 00 00 00 00 00 00 00 00 00 00 00 00 00   ................
0x7f23c1d7d5e0  00 00 00 00 00 00 00 00 00 00 00 00 00 00 00 00   ................
0x7f23c1d7d5f0  00 00 00 00 00 00 00 00 01 00 00 00 00 00 00 00   ................
0x7f23c1d7d600  00 00 00 00 00 00 00 00 00 00 00 00 00 00 00 00   ................
0x7f23c1d7d610  00 00 00 00 00 00 00 00 f0 27 6c c2 23 7f 00 00   .........'l.#...
0x7f23c1d7d620  f0 c4 6c c2 23 7f 00 00 0c 00 00 00 00 00 00 00   ..l.#...........
0x7f23c1d7d630  20 c2 6c c2 23 7f 00 00 e0 21 6c c2 23 7f 00 00   ..l.#....!l.#...
0x7f23c1d7d640  01 00 00 00 00 00 00 00 a0 a4 6b c2 23 7f 00 00   ..........k.#...
0x7f23c1d7d650  d0 a1 6b c2 23 7f 00 00 00 00 00 00 00 00 00 00   ..k.#...........
0x7f23c1d7d660  e0 da 6b c2 23 7f 00 00 10 d5 6b c2 23 7f 00 00   ..k.#.....k.#...
0x7f23c1d7d670  20 a5 6b c2 23 7f 00 00 00 00 00 00 00 00 00 00   ..k.#...........
0x7f23c1d7d680  00 00 00 00 00 00 00 00 00 00 00 00 00 00 00 00   ................
0x7f23c1d7d690  00 00 00 00 00 00 00 00 00 00 00 00 00 00 00 00   ................
0x7f23c1d7d6a0  00 00 00 00 00 00 00 00 00 00 00 00 00 00 00 00   ................
0x7f23c1d7d6b0  00 00 00 00 00 00 00 00 00 00 00 00 00 00 00 00   ................
Task: smbd pid 2939 rule r1 addr 0x7f23c26ba5e8
0x7f23c26ba5e8  31 39 32 2e 31 36 38 2e 31 30 2e 32 30 30 00 00   192.168.10.200..
0x7f23c26ba5f8  00 00 00 00 00 00 00 00 00 00 00 00 00 00 00 00   ................
0x7f23c26ba608  00 00 00 00 00 00 00 00 00 00 00 00 00 00 00 00   ................
0x7f23c26ba618  e0 d6 6b c2 23 7f 00 00 70 f0 6b c2 23 7f 00 00   ..k.#...p.k.#...
0x7f23c26ba628  90 80 6d c2 23 7f 00 00 10 d5 6b c2 23 7f 00 00   ..m.#.....k.#...
0x7f23c26ba638  00 00 00 00 b2 01 00 00 30 4b 6c c2 23 7f 00 00   ........0Kl.#...
0x7f23c26ba648  00 00 00 00 00 00 00 00 f0 b1 6c c2 23 7f 00 00   ..........l.#...
0x7f23c26ba658  00 40 00 00 00 00 00 00 00 00 00 00 00 00 00 00   .@..............
0x7f23c26ba668  01 08 00 00 00 00 00 00 44 a8 00 00 00 00 00 00   ........D.......
0x7f23c26ba678  00 00 00 00 00 00 00 00 09 00 00 00 00 00 00 00   ................
0x7f23c26ba688  ee 1c 00 00 01 00 00 00 60 4f 6c c2 23 7f 00 00   ........`Ol.#...
0x7f23c26ba698  00 00 00 00 00 00 00 00 00 00 00 00 00 00 00 00   ................
0x7f23c26ba6a8  b2 01 00 00 00 00 00 00 40 b9 6c c2 23 7f 00 00   ........@.l.#...
0x7f23c26ba6b8  ff ff ff ff ff ff ff ff 00 00 00 00 00 00 00 00   ................
0x7f23c26ba6c8  00 00 00 00 00 00 00 00 01 01 00 00 00 00 00 00   ................
0x7f23c26ba6d8  00 00 00 00 00 00 00 00 01 00 00 00 04 41 00 00   .............A..
Task: smbd pid 2939 rule r1 addr 0x7f23c26bd6e0
0x7f23c26bd6e0  31 39 32 2e 31 36 38 2e 31 30 2e 32 30 30 00 00   192.168.10.200..
0x7f23c26bd6f0  6e 20 74 68 65 20 73 61 81 00 00 00 00 00 00 00   n.the.sa........
0x7f23c26bd700  a0 44 6d c2 23 7f 00 00 00 00 00 00 00 00 00 00   .Dm.#...........
0x7f23c26bd710  90 b8 6b c2 23 7f 00 00 00 00 00 00 00 00 00 00   ..k.#...........
0x7f23c26bd720  00 00 00 00 00 00 00 00 00 00 00 00 00 00 00 00   ................
0x7f23c26bd730  70 fb 9d c1 23 7f 00 00 28 00 00 00 00 00 00 00   p...#...(.......
0x7f23c26bd740  70 0c 15 e8 77 6f 72 64 00 00 00 00 00 00 00 00   p...word........
0x7f23c26bd750  1d 00 00 00 11 00 00 00 1c 00 00 00 11 00 01 00   ................
0x7f23c26bd760  06 00 00 00 11 00 00 00 19 00 00 00 11 00 00 00   ................
0x7f23c26bd770  19 00 00 00 11 00 00 00 81 00 00 00 00 00 00 00   ................
0x7f23c26bd780  90 90 6d c2 23 7f 00 00 00 00 00 00 00 00 00 00   ..m.#...........
0x7f23c26bd790  40 a0 6b c2 23 7f 00 00 00 00 00 00 00 00 00 00   @.k.#...........
0x7f23c26bd7a0  00 00 00 00 00 00 00 00 00 00 00 00 00 00 00 00   ................
0x7f23c26bd7b0  d0 d7 6b c2 23 7f 00 00 27 00 00 00 00 00 00 00   ..k.#...'.......
0x7f23c26bd7c0  70 0c 15 e8 75 65 0a 0a 00 00 00 00 00 00 00 00   p...ue..........
0x7f23c26bd7d0  2f 76 61 72 2f 6c 6f 67 2f 73 61 6d 62 61 2f 6c   /var/log/samba/l
Task: smbd pid 2939 rule r1 addr 0x7f23c26c4957
0x7f23c26c4957  31 39 32 2e 31 36 38 2e 31 30 2e 32 30 30 00 38   192.168.10.200.8
0x7f23c26c4967  2e 31 30 2e 32 30 30 00 74 f0 00 00 00 00 00 00   .10.200.t.......
0x7f23c26c4977  00 61 00 00 00 00 00 00 00 f0 43 6c c2 23 7f 00   .a........Cl.#..
0x7f23c26c4987  00 b0 4d 6c c2 23 7f 00 00 00 00 00 00 00 00 00   ..Ml.#..........
0x7f23c26c4997  00 e0 49 6c c2 23 7f 00 00 00 00 00 00 00 00 00   ..Il.#..........
0x7f23c26c49a7  00 00 00 00 00 00 00 00 00 6b f4 9d c1 23 7f 00   .........k...#..
0x7f23c26c49b7  00 08 00 00 00 00 00 00 00 70 0c 15 e8 00 00 00   .........p......
0x7f23c26c49c7  00 00 00 00 00 00 00 00 00 50 4b 6c c2 23 7f 00   .........PKl.#..
0x7f23c26c49d7  00 81 00 00 00 00 00 00 00 00 00 00 00 00 00 00   ................
0x7f23c26c49e7  00 00 00 00 00 00 00 00 00 80 49 6c c2 23 7f 00   ..........Il.#..
0x7f23c26c49f7  00 60 4a 6c c2 23 7f 00 00 40 6d 6d c2 23 7f 00   .`Jl.#...@mm.#..
0x7f23c26c4a07  00 50 5b 5f c1 23 7f 00 00 96 f4 9d c1 23 7f 00   .P[_.#.......#..
0x7f23c26c4a17  00 20 00 00 00 00 00 00 00 70 0c 15 e8 00 00 00   .........p......
0x7f23c26c4a27  00 00 00 00 00 00 00 00 00 50 4b 6c c2 23 7f 00   .........PKl.#..
0x7f23c26c4a37  00 b0 4a 6c c2 23 7f 00 00 00 46 6c c2 23 7f 00   ..Jl.#....Fl.#..
0x7f23c26c4a47  00 60 4e 6c c2 23 7f 00 00 00 00 00 00 00 00 00   .`Nl.#..........
Task: smbd pid 2939 rule r1 addr 0x7f23c26ca560
0x7f23c26ca560  31 39 32 2e 31 36 38 2e 31 30 2e 32 30 30 00 00   192.168.10.200..
0x7f23c26ca570  40 00 00 00 00 00 00 00 61 00 00 00 00 00 00 00   @.......a.......
0x7f23c26ca580  00 00 00 00 00 00 00 00 e0 a5 6c c2 23 7f 00 00   ..........l.#...
0x7f23c26ca590  00 00 00 00 00 00 00 00 00 00 00 00 00 00 00 00   ................
0x7f23c26ca5a0  00 00 00 00 00 00 00 00 00 00 00 00 00 00 00 00   ................
0x7f23c26ca5b0  d0 a5 6c c2 23 7f 00 00 07 00 00 00 00 00 00 00   ..l.#...........
0x7f23c26ca5c0  70 0c 15 e8 00 00 00 00 00 00 00 00 00 00 00 00   p...............
0x7f23c26ca5d0  6e 6f 62 6f 64 79 00 00 61 00 00 00 00 00 00 00   nobody..a.......
0x7f23c26ca5e0  80 a5 6c c2 23 7f 00 00 40 a6 6c c2 23 7f 00 00   ..l.#...@.l.#...
0x7f23c26ca5f0  00 00 00 00 00 00 00 00 00 00 00 00 00 00 00 00   ................
0x7f23c26ca600  00 00 00 00 00 00 00 00 00 00 00 00 00 00 00 00   ................
0x7f23c26ca610  30 a6 6c c2 23 7f 00 00 02 00 00 00 00 00 00 00   0.l.#...........
0x7f23c26ca620  70 0c 15 e8 00 00 00 00 00 00 00 00 00 00 00 00   p...............
0x7f23c26ca630  78 00 6f 74 00 00 00 00 61 00 00 00 00 00 00 00   x.ot....a.......
0x7f23c26ca640  e0 a5 6c c2 23 7f 00 00 a0 a6 6c c2 23 7f 00 00   ..l.#.....l.#...
0x7f23c26ca650  00 00 00 00 00 00 00 00 00 00 00 00 00 00 00 00   ................
Task: smbd pid 2939 rule r1 addr 0x7f23c26cb290
0x7f23c26cb290  31 39 32 2e 31 36 38 2e 31 30 2e 32 30 30 00 00   192.168.10.200..
0x7f23c26cb2a0  20 00 00 00 00 00 00 00 31 00 00 00 00 00 00 00   ........1.......
0x7f23c26cb2b0  a0 22 6c c2 23 7f 00 00 10 a1 6c c2 23 7f 00 00   ."l.#.....l.#...
0x7f23c26cb2c0  00 00 00 00 00 00 00 00 74 02 00 00 01 00 00 00   ........t.......
0x7f23c26cb2d0  30 00 00 00 00 00 00 00 61 00 00 00 00 00 00 00   0.......a.......
0x7f23c26cb2e0  00 00 00 00 00 00 00 00 00 00 00 00 00 00 00 00   ................
0x7f23c26cb2f0  00 b0 6c c2 23 7f 00 00 20 bb 6c c2 23 7f 00 00   ..l.#.....l.#...
0x7f23c26cb300  00 00 00 00 00 00 00 00 00 00 00 00 00 00 00 00   ................
0x7f23c26cb310  6b f4 9d c1 23 7f 00 00 08 00 00 00 00 00 00 00   k...#...........
0x7f23c26cb320  70 0c 15 e8 00 00 00 00 00 00 00 00 00 00 00 00   p...............
0x7f23c26cb330  80 da 6c c2 23 7f 00 00 61 00 00 00 00 00 00 00   ..l.#...a.......
0x7f23c26cb340  00 81 6c c2 23 7f 00 00 60 c4 6c c2 23 7f 00 00   ..l.#...`.l.#...
0x7f23c26cb350  00 00 00 00 00 00 00 00 00 00 00 00 00 00 00 00   ................
0x7f23c26cb360  00 00 00 00 00 00 00 00 00 00 00 00 00 00 00 00   ................
0x7f23c26cb370  60 21 9c c1 23 7f 00 00 04 00 00 00 00 00 00 00   `!..#...........
0x7f23c26cb380  70 0c 15 e8 00 00 00 00 00 00 00 00 00 00 00 00   p...............
Task: apache2 pid 2961 rule r1 addr 0x7fe9ee16c998
0x7fe9ee16c998  31 39 32 2e 31 36 38 2e 31 30 2e 32 00 00 00 00   192.168.10.2....
0x7fe9ee16c9a8  38 30 2e 31 30 33 2e 31 31 39 2e 35 38 00 00 00   80.103.119.58...
0x7fe9ee16c9b8  00 00 00 00 00 00 00 00 00 00 00 00 00 00 00 00   ................
0x7fe9ee16c9c8  10 96 32 ee e9 7f 00 00 00 00 00 00 00 00 00 00   ..2.............
0x7fe9ee16c9d8  38 ca 16 ee e9 7f 00 00 00 00 00 00 00 00 00 00   8...............
0x7fe9ee16c9e8  90 c2 16 ee e9 7f 00 00 00 9c 32 ee e9 7f 00 00   ..........2.....
0x7fe9ee16c9f8  00 00 00 00 00 00 00 00 60 ca 16 ee e9 7f 00 00   ........`.......
0x7fe9ee16ca08  00 00 00 00 00 00 00 00 90 c2 16 ee e9 7f 00 00   ................
0x7fe9ee16ca18  a0 c0 16 ee e9 7f 00 00 90 c2 16 ee e9 7f 00 00   ................
0x7fe9ee16ca28  80 cb 16 ee e9 7f 00 00 f0 ca 16 ee e9 7f 00 00   ................
0x7fe9ee16ca38  b0 da 32 ee e9 7f 00 00 18 ca 16 ee e9 7f 00 00   ..2.............
0x7fe9ee16ca48  00 00 00 00 00 00 00 00 00 00 00 00 00 00 00 00   ................
0x7fe9ee16ca58  90 c2 16 ee e9 7f 00 00 50 e1 32 ee e9 7f 00 00   ........P.2.....
0x7fe9ee16ca68  18 ca 16 ee e9 7f 00 00 00 00 00 00 00 00 00 00   ................
0x7fe9ee16ca78  00 00 00 00 00 00 00 00 90 c2 16 ee e9 7f 00 00   ................
0x7fe9ee16ca88  00 00 00 00 00 00 00 00 00 00 00 00 00 00 00 00   ................
Task: apache2 pid 2970 rule r1 addr 0x7fe9ee16c998
0x7fe9ee16c998  31 39 32 2e 31 36 38 2e 31 30 2e 32 00 00 00 00   192.168.10.2....
0x7fe9ee16c9a8  38 38 2e 31 2e 31 35 2e 31 31 30 00 38 00 00 00   88.1.15.110.8...
0x7fe9ee16c9b8  00 00 00 00 00 00 00 00 00 00 00 00 00 00 00 00   ................
0x7fe9ee16c9c8  10 96 32 ee e9 7f 00 00 00 00 00 00 00 00 00 00   ..2.............
0x7fe9ee16c9d8  38 ca 16 ee e9 7f 00 00 00 00 00 00 00 00 00 00   8...............
0x7fe9ee16c9e8  90 c2 16 ee e9 7f 00 00 00 9c 32 ee e9 7f 00 00   ..........2.....
0x7fe9ee16c9f8  00 00 00 00 00 00 00 00 60 ca 16 ee e9 7f 00 00   ........`.......
0x7fe9ee16ca08  00 00 00 00 00 00 00 00 90 c2 16 ee e9 7f 00 00   ................
0x7fe9ee16ca18  a0 c0 16 ee e9 7f 00 00 90 c2 16 ee e9 7f 00 00   ................
0x7fe9ee16ca28  c0 cb 16 ee e9 7f 00 00 f0 ca 16 ee e9 7f 00 00   ................
0x7fe9ee16ca38  b0 da 32 ee e9 7f 00 00 18 ca 16 ee e9 7f 00 00   ..2.............
0x7fe9ee16ca48  00 00 00 00 00 00 00 00 00 00 00 00 00 00 00 00   ................
0x7fe9ee16ca58  90 c2 16 ee e9 7f 00 00 50 e1 32 ee e9 7f 00 00   ........P.2.....
0x7fe9ee16ca68  18 ca 16 ee e9 7f 00 00 00 00 00 00 00 00 00 00   ................
0x7fe9ee16ca78  00 00 00 00 00 00 00 00 90 c2 16 ee e9 7f 00 00   ................
0x7fe9ee16ca88  00 00 00 00 00 00 00 00 00 00 00 00 00 00 00 00   ................
Task: apache2 pid 2997 rule r1 addr 0x7fe9ee15f910
0x7fe9ee15f910  31 39 32 2e 31 36 38 2e 31 30 2e 32 2f 00 0a 00   192.168.10.2/...
0x7fe9ee15f920  00 00 00 00 00 00 00 00 00 00 00 00 00 00 00 00   ................
0x7fe9ee15f930  00 00 00 00 00 00 00 00 00 00 00 00 00 00 00 00   ................
0x7fe9ee15f940  2f 69 6e 64 65 78 2e 70 00 0a 00 09 09 09 09 09   /index.p........
0x7fe9ee15f950  43 6f 6f 6b 69 65 00 20 62 36 32 63 33 32 31 64   Cookie..b62c321d
0x7fe9ee15f960  30 30 65 32 35 33 36 30 33 62 38 62 32 64 39 64   00e253603b8b2d9d
0x7fe9ee15f970  62 30 31 31 64 30 61 38 3d 6e 35 33 6e 74 6c 6d   b011d0a8=n53ntlm
0x7fe9ee15f980  6d 66 68 6b 37 74 36 36 74 76 65 39 37 6d 32 37   mfhk7t66tve97m27
0x7fe9ee15f990  75 30 34 00 0a 7f 00 00 d8 e4 15 ee e9 7f 00 00   u04.............
0x7fe9ee15f9a0  08 e5 15 ee e9 7f 00 00 f0 e4 15 ee e9 7f 00 00   ................
0x7fe9ee15f9b0  38 e5 15 ee e9 7f 00 00 a8 e4 15 ee e9 7f 00 00   8...............
0x7fe9ee15f9c0  20 e5 15 ee e9 7f 00 00 c0 e4 15 ee e9 7f 00 00   ................
0x7fe9ee15f9d0  d8 e4 15 ee e9 7f 00 00 f0 e4 15 ee e9 7f 00 00   ................
0x7fe9ee15f9e0  a8 e4 15 ee e9 7f 00 00 c0 e4 15 ee e9 7f 00 00   ................
0x7fe9ee15f9f0  08 e5 15 ee e9 7f 00 00 38 e5 15 ee e9 7f 00 00   ........8.......
0x7fe9ee15fa00  20 e5 15 ee e9 7f 00 00 38 30 2e 31 30 33 2e 31   ........80.103.1
Task: apache2 pid 2997 rule r1 addr 0x7fe9ee168161
0x7fe9ee168161  31 39 32 2e 31 36 38 2e 31 30 2e 32 2f 0d 0a 43   192.168.10.2/..C
0x7fe9ee168171  6f 6f 6b 69 65 3a 20 62 36 32 63 33 32 31 64 30   ookie:.b62c321d0
0x7fe9ee168181  30 65 32 35 33 36 30 33 62 38 62 32 64 39 64 62   0e253603b8b2d9db
0x7fe9ee168191  30 31 31 64 30 61 38 3d 6e 35 33 6e 74 6c 6d 6d   011d0a8=n53ntlmm
0x7fe9ee1681a1  66 68 6b 37 74 36 36 74 76 65 39 37 6d 32 37 75   fhk7t66tve97m27u
0x7fe9ee1681b1  30 34 0d 0a 0d 0a 00 00 00 00 00 00 00 00 00 00   04..............
0x7fe9ee1681c1  00 00 00 00 00 00 00 00 00 00 00 00 00 00 00 00   ................
0x7fe9ee1681d1  00 00 00 00 00 00 00 00 00 00 00 00 00 00 00 00   ................
0x7fe9ee1681e1  00 00 00 00 00 00 00 00 00 00 00 00 00 00 00 00   ................
0x7fe9ee1681f1  00 00 00 00 00 00 00 00 00 00 00 00 00 00 00 00   ................
0x7fe9ee168201  00 00 00 00 00 00 00 00 00 00 00 00 00 00 00 00   ................
0x7fe9ee168211  00 00 00 00 00 00 00 00 00 00 00 00 00 00 00 00   ................
0x7fe9ee168221  00 00 00 00 00 00 00 00 00 00 00 00 00 00 00 00   ................
0x7fe9ee168231  00 00 00 00 00 00 00 00 00 00 00 00 00 00 00 00   ................
0x7fe9ee168241  00 00 00 00 00 00 00 00 00 00 00 00 00 00 00 00   ................
0x7fe9ee168251  00 00 00 00 00 00 00 00 00 00 00 00 00 00 00 00   ................
Task: apache2 pid 2997 rule r1 addr 0x7fe9ee16c998
0x7fe9ee16c998  31 39 32 2e 31 36 38 2e 31 30 2e 32 00 00 00 00   192.168.10.2....
0x7fe9ee16c9a8  38 30 2e 31 30 33 2e 31 31 39 2e 35 38 00 00 00   80.103.119.58...
0x7fe9ee16c9b8  00 00 00 00 00 00 00 00 00 00 00 00 00 00 00 00   ................
0x7fe9ee16c9c8  10 96 32 ee e9 7f 00 00 00 00 00 00 00 00 00 00   ..2.............
0x7fe9ee16c9d8  38 ca 16 ee e9 7f 00 00 00 00 00 00 00 00 00 00   8...............
0x7fe9ee16c9e8  90 c2 16 ee e9 7f 00 00 00 9c 32 ee e9 7f 00 00   ..........2.....
0x7fe9ee16c9f8  00 00 00 00 00 00 00 00 60 ca 16 ee e9 7f 00 00   ........`.......
0x7fe9ee16ca08  00 00 00 00 00 00 00 00 90 c2 16 ee e9 7f 00 00   ................
0x7fe9ee16ca18  a0 c0 16 ee e9 7f 00 00 90 c2 16 ee e9 7f 00 00   ................
0x7fe9ee16ca28  80 cb 16 ee e9 7f 00 00 f0 ca 16 ee e9 7f 00 00   ................
0x7fe9ee16ca38  b0 da 32 ee e9 7f 00 00 18 ca 16 ee e9 7f 00 00   ..2.............
0x7fe9ee16ca48  00 00 00 00 00 00 00 00 00 00 00 00 00 00 00 00   ................
0x7fe9ee16ca58  90 c2 16 ee e9 7f 00 00 50 e1 32 ee e9 7f 00 00   ........P.2.....
0x7fe9ee16ca68  18 ca 16 ee e9 7f 00 00 00 00 00 00 00 00 00 00   ................
0x7fe9ee16ca78  00 00 00 00 00 00 00 00 90 c2 16 ee e9 7f 00 00   ................
0x7fe9ee16ca88  00 00 00 00 00 00 00 00 00 00 00 00 00 00 00 00   ................
Task: apache2 pid 2997 rule r1 addr 0x7fe9ef866937
0x7fe9ef866937  31 39 32 2e 31 36 38 2e 31 30 2e 32 2f 69 6e 64   192.168.10.2/ind
0x7fe9ef866947  65 78 2e 70 68 70 3f 6f 70 74 69 6f 6e 3d 63 6f   ex.php?option=co
0x7fe9ef866957  6d 5f 61 6a 61 78 26 66 6f 72 6d 61 74 3d 6a 73   m_ajax&format=js
0x7fe9ef866967  6f 6e 00 00 00 ff ff ff ff 80 58 b1 75 e1 af 93   on........X.u...
0x7fe9ef866977  3b 74 02 00 00 20 02 00 00 2f e1 de a9 4e 2b c7   ;t......./...N+.
0x7fe9ef866987  11 71 00 00 00 00 00 00 00 c0 03 00 00 00 00 00   .q..............
0x7fe9ef866997  00 40 00 00 00 00 00 00 00 09 b8 e6 b0 03 a7 aa   .@..............
0x7fe9ef8669a7  5d 00 00 00 00 00 00 00 00 00 00 00 00 00 00 00   ]...............
0x7fe9ef8669b7  00 00 00 00 00 00 00 00 00 00 00 00 00 00 00 00   ................
0x7fe9ef8669c7  00 00 00 00 00 00 00 00 00 00 00 00 00 00 00 00   ................
0x7fe9ef8669d7  00 00 00 00 00 00 00 00 00 00 00 00 00 00 00 00   ................
0x7fe9ef8669e7  00 58 b1 75 e1 af 93 3b 74 2f e1 de a9 4e 2b c7   .X.u...;t/...N+.
0x7fe9ef8669f7  11 c8 00 00 00 00 00 00 00 71 00 00 00 00 00 00   .........q......
0x7fe9ef866a07  00 18 00 00 00 00 00 00 00 09 b8 e6 b0 03 a7 aa   ................
0x7fe9ef866a17  5d 27 75 b8 af 50 4f c4 db cf cf 3e af 50 4f c4   ]'u..PO....>.PO.
0x7fe9ef866a27  db 00 00 00 00 00 00 00 00 58 b1 75 e1 af 93 3b   .........X.u...;
Task: apache2 pid 2997 rule r1 addr 0x7fe9ef9c47f8
0x7fe9ef9c47f8  31 39 32 2e 31 36 38 2e 31 30 2e 32 2f 69 6e 64   192.168.10.2/ind
0x7fe9ef9c4808  65 78 2e 70 68 70 2f 32 2d 75 6e 63 61 74 65 67   ex.php/2-uncateg
0x7fe9ef9c4818  6f 72 69 73 65 64 2f 31 2d 71 75 69 65 6e 65 73   orised/1-quienes
0x7fe9ef9c4828  2d 73 6f 6d 6f 73 5c 22 3b 73 3a 36 3a 5c 22 65   -somos\";s:6:\"e
0x7fe9ef9c4838  78 70 69 72 79 5c 22 3b 69 3a 31 35 39 33 37 36   xpiry\";i:159376
0x7fe9ef9c4848  30 38 31 32 3b 7d 7d 73 3a 31 33 3a 5c 22 73 65   0812;}}s:13:\"se
0x7fe9ef9c4858  73 73 69 6f 6e 2e 74 6f 6b 65 6e 5c 22 3b 73 3a   ssion.token\";s:
0x7fe9ef9c4868  33 32 3a 5c 22 38 39 39 38 63 37 31 66 65 63 36   32:\"8998c71fec6
0x7fe9ef9c4878  61 65 31 30 36 31 65 38 35 66 66 38 62 66 63 66   ae1061e85ff8bfcf
0x7fe9ef9c4888  36 35 61 30 30 5c 22 3b 7d 27 0a 09 2c 20 60 74   65a00\";}'..,.`t
0x7fe9ef9c4898  69 6d 65 60 20 3d 20 27 31 35 39 33 37 36 34 31   ime`.=.'15937641
0x7fe9ef9c48a8  37 32 27 0a 57 48 45 52 45 20 60 73 65 73 73 69   72'.WHERE.`sessi
0x7fe9ef9c48b8  6f 6e 5f 69 64 60 20 3d 20 27 6e 35 33 6e 74 6c   on_id`.=.'n53ntl
0x7fe9ef9c48c8  6d 6d 66 68 6b 37 74 36 36 74 76 65 39 37 6d 32   mmfhk7t66tve97m2
0x7fe9ef9c48d8  37 75 30 34 27 41 53 20 62 61 64 63 61 74 73 20   7u04'AS.badcats.
0x7fe9ef9c48e8  4f 4e 20 62 61 64 63 61 74 73 2e 69 64 20 3d 20   ON.badcats.id.=.
Task: apache2 pid 2997 rule r1 addr 0x7fe9efb0e75c
0x7fe9efb0e75c  31 39 32 2e 31 36 38 2e 31 30 2e 32 2f 69 6e 64   192.168.10.2/ind
0x7fe9efb0e76c  65 78 2e 70 68 70 2f 32 2d 75 6e 63 00 00 00 00   ex.php/2-unc....
0x7fe9efb0e77c  00 00 00 00 00 00 00 00 00 00 00 00 00 00 00 00   ................
0x7fe9efb0e78c  00 00 00 00 00 00 00 00 00 00 00 00 00 00 00 00   ................
0x7fe9efb0e79c  00 00 00 00 00 00 00 00 00 00 00 00 00 00 00 00   ................
0x7fe9efb0e7ac  00 00 00 00 00 00 00 00 3a 22 73 65 40 29 5c ef   ........:"se@)\.
0x7fe9efb0e7bc  e9 7f 00 00 13 00 00 00 d5 01 00 00 e0 e3 fc ef   ................
0x7fe9efb0e7cc  e9 7f 00 00 33 00 00 00 63 36 61 65 00 00 00 00   ....3...c6ae....
0x7fe9efb0e7dc  00 00 00 00 58 b1 75 e1 af 93 3b 74 61 30 30 22   ....X.u...;ta00"
0x7fe9efb0e7ec  3b 7d 00 58 b1 75 e1 af 93 3b 74 30 2f e1 de a9   ;}.X.u...;t0/...
0x7fe9efb0e7fc  4e 2b c7 11 a0 02 00 00 00 00 00 00 e9 02 00 00   N+..............
0x7fe9efb0e80c  00 00 00 00 20 00 00 00 00 00 00 00 09 b8 e6 b0   ................
0x7fe9efb0e81c  03 a7 aa 5d 6f d0 3f af 50 4f c4 db 77 37 40 af   ...]o.?.PO..w7@.
0x7fe9efb0e82c  50 4f c4 db 00 00 00 00 00 00 00 00 00 00 00 00   PO..............
0x7fe9efb0e83c  00 00 00 00 00 00 00 00 00 00 00 00 2f e1 de a9   ............/...
0x7fe9efb0e84c  4e 2b c7 11 50 00 00 00 00 00 00 00 51 00 00 00   N+..P.......Q...
Task: apache2 pid 2997 rule r1 addr 0x7fe9efd91bd4
0x7fe9efd91bd4  31 39 32 2e 31 36 38 2e 31 30 2e 32 2f 69 6e 64   192.168.10.2/ind
0x7fe9efd91be4  65 78 2e 70 68 70 2f 32 2d 75 6e 63 61 74 65 67   ex.php/2-uncateg
0x7fe9efd91bf4  6f 72 69 73 65 64 2f 31 2d 71 75 69 65 6e 65 73   orised/1-quienes
0x7fe9efd91c04  2d 73 6f 6d 6f 73 22 3b 73 3a 36 3a 22 65 78 70   -somos";s:6:"exp
0x7fe9efd91c14  69 72 79 22 3b 69 3a 31 35 39 33 37 36 30 38 31   iry";i:159376081
0x7fe9efd91c24  32 3b 7d 7d 73 3a 31 33 3a 22 73 65 73 73 69 6f   2;}}s:13:"sessio
0x7fe9efd91c34  6e 2e 74 6f 6b 65 6e 22 3b 73 3a 33 32 3a 22 38   n.token";s:32:"8
0x7fe9efd91c44  39 39 38 63 37 31 66 65 63 36 61 65 31 30 36 31   998c71fec6ae1061
0x7fe9efd91c54  65 38 35 66 66 38 62 66 63 66 36 35 61 30 30 22   e85ff8bfcf65a00"
0x7fe9efd91c64  3b 7d 00 00 f7 52 53 af 50 4f c4 db f7 52 53 af   ;}...RS.PO...RS.
0x7fe9efd91c74  50 4f c4 db f0 3e 32 ef e9 7f 00 00 00 00 00 00   PO...>2.........
0x7fe9efd91c84  00 00 00 00 00 00 00 00 00 00 00 00 00 00 00 00   ................
0x7fe9efd91c94  00 00 00 00 00 00 00 00 00 00 00 00 04 00 00 00   ................
0x7fe9efd91ca4  00 00 00 00 10 04 00 00 11 00 00 00 00 00 00 00   ................
0x7fe9efd91cb4  00 00 00 00 00 00 00 00 58 b1 75 e1 af 93 3b 74   ........X.u...;t
0x7fe9efd91cc4  e9 7f 00 00 2f e1 de a9 4e 2b c7 11 88 05 00 00   ..../...N+......
Task: apache2 pid 2997 rule r1 addr 0x7fe9efd921b4
0x7fe9efd921b4  31 39 32 2e 31 36 38 2e 31 30 2e 32 2f 69 6e 64   192.168.10.2/ind
0x7fe9efd921c4  65 78 2e 70 68 70 2f 32 2d 75 6e 63 61 74 65 67   ex.php/2-uncateg
0x7fe9efd921d4  6f 72 69 73 65 64 2f 31 2d 71 75 69 65 6e 65 73   orised/1-quienes
0x7fe9efd921e4  2d 73 6f 6d 6f 73 22 3b 73 3a 36 3a 22 65 78 70   -somos";s:6:"exp
0x7fe9efd921f4  69 72 79 22 3b 69 3a 31 35 39 33 37 36 30 38 31   iry";i:159376081
0x7fe9efd92204  32 3b 7d 7d 73 3a 31 33 3a 22 73 65 73 73 69 6f   2;}}s:13:"sessio
0x7fe9efd92214  6e 2e 74 6f 6b 65 6e 22 3b 73 3a 33 32 3a 22 38   n.token";s:32:"8
0x7fe9efd92224  39 39 38 63 37 31 66 65 63 36 61 65 31 30 36 31   998c71fec6ae1061
0x7fe9efd92234  65 38 35 66 66 38 62 66 63 66 36 35 61 30 30 22   e85ff8bfcf65a00"
0x7fe9efd92244  3b 7d 00 58 b1 75 e1 af 93 3b 74 00 2f e1 de a9   ;}.X.u...;t./...
0x7fe9efd92254  4e 2b c7 11 51 00 00 00 00 00 00 00 68 0b 00 00   N+..Q.......h...
0x7fe9efd92264  00 00 00 00 20 00 00 00 00 00 00 00 09 b8 e6 b0   ................
0x7fe9efd92274  03 a7 aa 5d 70 36 65 ef e9 7f 00 00 00 00 00 00   ...]p6e.........
0x7fe9efd92284  00 00 00 00 00 00 00 00 06 00 32 37 00 00 00 00   ..........27....
0x7fe9efd92294  00 00 00 00 58 b1 75 e1 af 93 3b 74 2f e1 de a9   ....X.u...;t/...
0x7fe9efd922a4  4e 2b c7 11 f0 00 00 00 00 00 00 00 51 00 00 00   N+..........Q...
Task: apache2 pid 2997 rule r1 addr 0x7fe9efdc8b2c
0x7fe9efdc8b2c  31 39 32 2e 31 36 38 2e 31 30 2e 32 2f 69 6e 64   192.168.10.2/ind
0x7fe9efdc8b3c  65 78 2e 70 68 70 2f 32 2d 75 6e 63 61 74 65 67   ex.php/2-uncateg
0x7fe9efdc8b4c  6f 72 69 73 65 64 2f 31 2d 71 75 69 65 6e 65 73   orised/1-quienes
0x7fe9efdc8b5c  2d 73 6f 6d 6f 73 5c 22 3b 73 3a 36 3a 5c 22 65   -somos\";s:6:\"e
0x7fe9efdc8b6c  78 70 69 72 79 5c 22 3b 69 3a 31 35 39 33 37 36   xpiry\";i:159376
0x7fe9efdc8b7c  30 38 31 32 3b 7d 7d 73 3a 31 33 3a 5c 22 73 65   0812;}}s:13:\"se
0x7fe9efdc8b8c  73 73 69 6f 6e 2e 74 6f 6b 65 6e 5c 22 3b 73 3a   ssion.token\";s:
0x7fe9efdc8b9c  33 32 3a 5c 22 38 39 39 38 63 37 31 66 65 63 36   32:\"8998c71fec6
0x7fe9efdc8bac  61 65 31 30 36 31 65 38 35 66 66 38 62 66 63 66   ae1061e85ff8bfcf
0x7fe9efdc8bbc  36 35 61 30 30 5c 22 3b 7d 27 0a 09 2c 20 60 74   65a00\";}'..,.`t
0x7fe9efdc8bcc  69 6d 65 60 20 3d 20 27 31 35 39 33 37 36 34 31   ime`.=.'15937641
0x7fe9efdc8bdc  37 32 27 00 58 b1 75 e1 af 93 3b 74 27 5f 5f 64   72'.X.u...;t'__d
0x7fe9efdc8bec  65 66 61 75 d0 17 00 00 00 00 00 00 61 06 00 00   efau........a...
0x7fe9efdc8bfc  00 00 00 00 65 73 73 69 6f 6e 2e 63 6f 75 6e 74   ....ession.count
0x7fe9efdc8c0c  65 72 5c 22 5f c5 56 af 50 4f c4 db 5f c5 56 af   er\"_.V.PO.._.V.
0x7fe9efdc8c1c  50 4f c4 db 40 19 65 ef e9 7f 00 00 00 00 00 00   PO..@.e.........
Task: apache2 pid 2997 rule r1 addr 0x7fe9efdc9156
0x7fe9efdc9156  31 39 32 2e 31 36 38 2e 31 30 2e 32 2f 69 6e 64   192.168.10.2/ind
0x7fe9efdc9166  65 78 2e 70 68 70 2f 32 2d 75 6e 63 61 74 65 67   ex.php/2-uncateg
0x7fe9efdc9176  6f 72 69 73 65 64 2f 31 2d 71 75 69 65 6e 65 73   orised/1-quienes
0x7fe9efdc9186  2d 73 6f 6d 6f 73 5c 22 3b 73 3a 36 3a 5c 22 65   -somos\";s:6:\"e
0x7fe9efdc9196  78 70 69 72 79 5c 22 3b 69 3a 31 35 39 33 37 36   xpiry\";i:159376
0x7fe9efdc91a6  30 38 31 32 3b 7d 7d 73 3a 31 33 3a 5c 22 73 65   0812;}}s:13:\"se
0x7fe9efdc91b6  73 73 69 6f 6e 2e 74 6f 6b 65 6e 5c 22 3b 73 3a   ssion.token\";s:
0x7fe9efdc91c6  33 32 3a 5c 22 38 39 39 38 63 37 31 66 65 63 36   32:\"8998c71fec6
0x7fe9efdc91d6  61 65 31 30 36 31 65 38 35 66 66 38 62 66 63 66   ae1061e85ff8bfcf
0x7fe9efdc91e6  36 35 61 30 30 5c 22 3b 7d 00 58 b1 75 e1 af 93   65a00\";}.X.u...
0x7fe9efdc91f6  3b 74 00 00 00 00 00 00 00 00 c0 11 00 00 00 00   ;t..............
0x7fe9efdc9206  00 00 39 06 00 00 00 00 00 00 30 9b b4 ef e9 7f   ..9.......0.....
0x7fe9efdc9216  00 00 f8 7e b4 ef e9 7f 00 00 4f df 56 af 50 4f   ...~......O.V.PO
0x7fe9efdc9226  c4 db 4f df 56 af 50 4f c4 db f8 3e 32 ef e9 7f   ..O.V.PO...>2...
0x7fe9efdc9236  00 00 00 19 65 ef e9 7f 00 00 00 00 00 00 00 00   ....e...........
0x7fe9efdc9246  00 00 00 00 00 00 00 00 00 00 50 30 cb ef e9 7f   ..........P0....
Task: apache2 pid 2997 rule r1 addr 0x7fe9efded787
0x7fe9efded787  31 39 32 2e 31 36 38 2e 31 30 2e 32 2f 69 6e 64   192.168.10.2/ind
0x7fe9efded797  65 78 2e 70 68 70 2f 32 2d 75 6e 63 61 74 65 67   ex.php/2-uncateg
0x7fe9efded7a7  6f 72 69 73 65 64 2f 31 2d 71 75 69 65 6e 65 73   orised/1-quienes
0x7fe9efded7b7  2d 73 6f 6d 6f 73 5c 22 3b 73 3a 36 3a 5c 22 65   -somos\";s:6:\"e
0x7fe9efded7c7  78 70 69 72 79 5c 22 3b 69 3a 31 35 39 33 37 36   xpiry\";i:159376
0x7fe9efded7d7  30 38 31 32 3b 7d 7d 73 3a 31 33 3a 5c 22 73 65   0812;}}s:13:\"se
0x7fe9efded7e7  73 73 69 6f 6e 2e 74 6f 6b 65 6e 5c 22 3b 73 3a   ssion.token\";s:
0x7fe9efded7f7  33 32 3a 5c 22 38 39 39 38 63 37 31 66 65 63 36   32:\"8998c71fec6
0x7fe9efded807  61 65 31 30 36 31 65 38 35 66 66 38 62 66 63 66   ae1061e85ff8bfcf
0x7fe9efded817  36 35 61 30 30 5c 22 3b 7d 27 00 58 b1 75 e1 af   65a00\";}'.X.u..
0x7fe9efded827  93 3b 74 00 00 e9 7f 00 00 2f e1 de a9 4e 2b c7   .;t....../...N+.
0x7fe9efded837  11 e8 0c 00 00 00 00 00 00 49 06 00 00 00 00 00   .........I......
0x7fe9efded847  00 79 06 00 00 00 00 00 00 09 b8 e6 b0 03 a7 aa   .y..............
0x7fe9efded857  5d 87 96 54 af 50 4f c4 db 87 96 54 af 50 4f c4   ]..T.PO....T.PO.
0x7fe9efded867  db f0 3e 32 ef e9 7f 00 00 e8 16 d9 ef e9 7f 00   ..>2............
0x7fe9efded877  00 18 ff 65 ef e9 7f 00 00 64 65 66 61 75 6c 74   ...e.....default
Task: apache2 pid 2997 rule r1 addr 0x7fe9efdeddeb
0x7fe9efdeddeb  31 39 32 2e 31 36 38 2e 31 30 2e 32 2f 69 6e 64   192.168.10.2/ind
0x7fe9efdeddfb  65 78 2e 70 68 70 2f 32 2d 75 6e 63 61 74 65 67   ex.php/2-uncateg
0x7fe9efdede0b  6f 72 69 73 65 64 2f 31 2d 71 75 69 65 6e 65 73   orised/1-quienes
0x7fe9efdede1b  2d 73 6f 6d 6f 73 5c 22 3b 73 3a 36 3a 5c 22 65   -somos\";s:6:\"e
0x7fe9efdede2b  78 70 69 72 79 5c 22 3b 69 3a 31 35 39 33 37 36   xpiry\";i:159376
0x7fe9efdede3b  30 38 31 32 3b 7d 7d 73 3a 31 33 3a 5c 22 73 65   0812;}}s:13:\"se
0x7fe9efdede4b  73 73 69 6f 6e 2e 74 6f 6b 65 6e 5c 22 3b 73 3a   ssion.token\";s:
0x7fe9efdede5b  33 32 3a 5c 22 38 39 39 38 63 37 31 66 65 63 36   32:\"8998c71fec6
0x7fe9efdede6b  61 65 31 30 36 31 65 38 35 66 66 38 62 66 63 66   ae1061e85ff8bfcf
0x7fe9efdede7b  36 35 61 30 30 5c 22 3b 7d 27 0a 09 2c 20 60 74   65a00\";}'..,.`t
0x7fe9efdede8b  69 6d 65 60 20 3d 20 27 31 35 39 33 37 36 34 31   ime`.=.'15937641
0x7fe9efdede9b  37 32 27 0a 57 48 45 52 45 20 60 73 65 73 73 69   72'.WHERE.`sessi
0x7fe9efdedeab  6f 6e 5f 69 64 60 20 3d 20 27 6e 35 33 6e 74 6c   on_id`.=.'n53ntl
0x7fe9efdedebb  6d 6d 66 68 6b 37 74 36 36 74 76 65 39 37 6d 32   mmfhk7t66tve97m2
0x7fe9efdedecb  37 75 30 34 27 00 58 b1 75 e1 af 93 3b 74 00 00   7u04'.X.u...;t..
0x7fe9efdededb  00 00 00 00 00 61 75 6c 74 7c 61 3a 39 38 06 00   .....ault|a:98..
Task: apache2 pid 2997 rule r1 addr 0x7fe9efdee448
0x7fe9efdee448  31 39 32 2e 31 36 38 2e 31 30 2e 32 2f 69 6e 64   192.168.10.2/ind
0x7fe9efdee458  65 78 2e 70 68 70 2f 32 2d 75 6e 63 61 74 65 67   ex.php/2-uncateg
0x7fe9efdee468  6f 72 69 73 65 64 2f 31 2d 71 75 69 65 6e 65 73   orised/1-quienes
0x7fe9efdee478  2d 73 6f 6d 6f 73 5c 22 3b 73 3a 36 3a 5c 22 65   -somos\";s:6:\"e
0x7fe9efdee488  78 70 69 72 79 5c 22 3b 69 3a 31 35 39 33 37 36   xpiry\";i:159376
0x7fe9efdee498  30 38 31 32 3b 7d 7d 73 3a 31 33 3a 5c 22 73 65   0812;}}s:13:\"se
0x7fe9efdee4a8  73 73 69 6f 6e 2e 74 6f 6b 65 6e 5c 22 3b 73 3a   ssion.token\";s:
0x7fe9efdee4b8  33 32 3a 5c 22 38 39 39 38 63 37 31 66 65 63 36   32:\"8998c71fec6
0x7fe9efdee4c8  61 65 31 30 36 31 65 38 35 66 66 38 62 66 63 66   ae1061e85ff8bfcf
0x7fe9efdee4d8  36 35 61 30 30 5c 22 3b 7d 27 0a 09 2c 20 60 74   65a00\";}'..,.`t
0x7fe9efdee4e8  69 6d 65 60 20 3d 20 27 31 35 39 33 37 36 34 31   ime`.=.'15937641
0x7fe9efdee4f8  37 32 27 00 58 b1 75 e1 af 93 3b 74 00 00 00 00   72'.X.u...;t....
0x7fe9efdee508  62 00 00 00 55 00 00 00 58 b1 75 e1 af 93 3b 74   b...U...X.u...;t
0x7fe9efdee518  2f e1 de a9 4e 2b c7 11 39 00 00 00 00 00 00 00   /...N+..9.......
0x7fe9efdee528  30 13 00 00 00 00 00 00 08 00 00 00 00 00 00 00   0...............
0x7fe9efdee538  09 b8 e6 b0 03 a7 aa 5d 6d 65 73 73 61 67 65 00   .......]message.
Task: apache2 pid 3009 rule r1 addr 0x7fe9ee16c998
0x7fe9ee16c998  31 39 32 2e 31 36 38 2e 31 30 2e 32 00 00 00 00   192.168.10.2....
0x7fe9ee16c9a8  38 30 2e 31 30 33 2e 31 31 39 2e 35 38 00 00 00   80.103.119.58...
0x7fe9ee16c9b8  00 00 00 00 00 00 00 00 00 00 00 00 00 00 00 00   ................
0x7fe9ee16c9c8  10 96 32 ee e9 7f 00 00 00 00 00 00 00 00 00 00   ..2.............
0x7fe9ee16c9d8  38 ca 16 ee e9 7f 00 00 00 00 00 00 00 00 00 00   8...............
0x7fe9ee16c9e8  90 c2 16 ee e9 7f 00 00 00 9c 32 ee e9 7f 00 00   ..........2.....
0x7fe9ee16c9f8  00 00 00 00 00 00 00 00 60 ca 16 ee e9 7f 00 00   ........`.......
0x7fe9ee16ca08  00 00 00 00 00 00 00 00 90 c2 16 ee e9 7f 00 00   ................
0x7fe9ee16ca18  a0 c0 16 ee e9 7f 00 00 90 c2 16 ee e9 7f 00 00   ................
0x7fe9ee16ca28  80 cb 16 ee e9 7f 00 00 f0 ca 16 ee e9 7f 00 00   ................
0x7fe9ee16ca38  b0 da 32 ee e9 7f 00 00 18 ca 16 ee e9 7f 00 00   ..2.............
0x7fe9ee16ca48  00 00 00 00 00 00 00 00 00 00 00 00 00 00 00 00   ................
0x7fe9ee16ca58  90 c2 16 ee e9 7f 00 00 50 e1 32 ee e9 7f 00 00   ........P.2.....
0x7fe9ee16ca68  18 ca 16 ee e9 7f 00 00 00 00 00 00 00 00 00 00   ................
0x7fe9ee16ca78  00 00 00 00 00 00 00 00 90 c2 16 ee e9 7f 00 00   ................
0x7fe9ee16ca88  00 00 00 00 00 00 00 00 00 00 00 00 00 00 00 00   ................
Task: apache2 pid 3009 rule r1 addr 0x7fe9ee172448
0x7fe9ee172448  31 39 32 2e 31 36 38 2e 31 30 2e 32 30 30 00 00   192.168.10.200..
0x7fe9ee172458  00 00 00 00 00 00 00 00 00 00 00 00 00 00 00 00   ................
0x7fe9ee172468  47 45 54 20 2f 69 6e 64 65 78 2e 70 68 70 3f 6f   GET./index.php?o
0x7fe9ee172478  70 74 69 6f 6e 3d 63 6f 6d 5f 61 6a 61 78 26 66   ption=com_ajax&f
0x7fe9ee172488  6f 72 6d 61 74 3d 6a 73 6f 6e 20 48 54 54 50 2f   ormat=json.HTTP/
0x7fe9ee172498  31 2e 31 00 4e 2b 53 45 4c 45 43 54 20 31 2c 00   1.1.N+SELECT.1,.
0x7fe9ee1724a8  55 4f 43 6f 6e 74 72 6f 6c 2e 75 6f 63 6f 6e 74   UOControl.uocont
0x7fe9ee1724b8  72 6f 6c 2e 63 6f 6d 00 00 00 00 00 00 00 00 00   rol.com.........
0x7fe9ee1724c8  00 00 00 00 00 00 00 00 00 00 00 00 00 00 00 00   ................
0x7fe9ee1724d8  00 00 00 00 00 00 00 00 00 00 00 00 00 00 00 00   ................
0x7fe9ee1724e8  00 00 00 00 00 00 00 00 00 00 00 00 00 00 00 00   ................
0x7fe9ee1724f8  00 00 00 00 00 00 00 00 00 00 00 00 00 00 00 00   ................
0x7fe9ee172508  00 00 00 00 00 00 00 00 00 00 00 00 00 00 00 00   ................
0x7fe9ee172518  00 00 00 00 00 00 00 00 00 00 00 00 00 00 00 00   ................
0x7fe9ee172528  00 00 00 00 00 00 00 00 00 00 00 00 00 00 00 00   ................
0x7fe9ee172538  00 00 00 00 00 00 00 00 00 00 00 00 00 00 00 00   ................
Task: apache2 pid 3010 rule r1 addr 0x7fe9ee16c998
0x7fe9ee16c998  31 39 32 2e 31 36 38 2e 31 30 2e 32 00 00 00 00   192.168.10.2....
0x7fe9ee16c9a8  38 30 2e 31 30 33 2e 31 31 39 2e 35 38 00 00 00   80.103.119.58...
0x7fe9ee16c9b8  00 00 00 00 00 00 00 00 00 00 00 00 00 00 00 00   ................
0x7fe9ee16c9c8  10 96 32 ee e9 7f 00 00 00 00 00 00 00 00 00 00   ..2.............
0x7fe9ee16c9d8  38 ca 16 ee e9 7f 00 00 00 00 00 00 00 00 00 00   8...............
0x7fe9ee16c9e8  90 c2 16 ee e9 7f 00 00 00 9c 32 ee e9 7f 00 00   ..........2.....
0x7fe9ee16c9f8  00 00 00 00 00 00 00 00 60 ca 16 ee e9 7f 00 00   ........`.......
0x7fe9ee16ca08  00 00 00 00 00 00 00 00 90 c2 16 ee e9 7f 00 00   ................
0x7fe9ee16ca18  a0 c0 16 ee e9 7f 00 00 90 c2 16 ee e9 7f 00 00   ................
0x7fe9ee16ca28  80 cb 16 ee e9 7f 00 00 f0 ca 16 ee e9 7f 00 00   ................
0x7fe9ee16ca38  b0 da 32 ee e9 7f 00 00 18 ca 16 ee e9 7f 00 00   ..2.............
0x7fe9ee16ca48  00 00 00 00 00 00 00 00 00 00 00 00 00 00 00 00   ................
0x7fe9ee16ca58  90 c2 16 ee e9 7f 00 00 50 e1 32 ee e9 7f 00 00   ........P.2.....
0x7fe9ee16ca68  18 ca 16 ee e9 7f 00 00 00 00 00 00 00 00 00 00   ................
0x7fe9ee16ca78  00 00 00 00 00 00 00 00 90 c2 16 ee e9 7f 00 00   ................
0x7fe9ee16ca88  00 00 00 00 00 00 00 00 00 00 00 00 00 00 00 00   ................
Task: apache2 pid 3010 rule r1 addr 0x7fe9ee172448
0x7fe9ee172448  31 39 32 2e 31 36 38 2e 31 30 2e 32 30 30 00 00   192.168.10.200..
0x7fe9ee172458  00 00 00 00 00 00 00 00 00 00 00 00 00 00 00 00   ................
0x7fe9ee172468  47 45 54 20 2f 69 6e 64 65 78 2e 70 68 70 3f 6f   GET./index.php?o
0x7fe9ee172478  70 74 69 6f 6e 3d 63 6f 6d 5f 61 6a 61 78 26 66   ption=com_ajax&f
0x7fe9ee172488  6f 72 6d 61 74 3d 6a 73 6f 6e 20 48 54 54 50 2f   ormat=json.HTTP/
0x7fe9ee172498  31 2e 31 00 4e 2b 53 45 4c 45 43 54 20 31 2c 00   1.1.N+SELECT.1,.
0x7fe9ee1724a8  55 4f 43 6f 6e 74 72 6f 6c 2e 75 6f 63 6f 6e 74   UOControl.uocont
0x7fe9ee1724b8  72 6f 6c 2e 63 6f 6d 00 00 00 00 00 00 00 00 00   rol.com.........
0x7fe9ee1724c8  00 00 00 00 00 00 00 00 00 00 00 00 00 00 00 00   ................
0x7fe9ee1724d8  00 00 00 00 00 00 00 00 00 00 00 00 00 00 00 00   ................
0x7fe9ee1724e8  00 00 00 00 00 00 00 00 00 00 00 00 00 00 00 00   ................
0x7fe9ee1724f8  00 00 00 00 00 00 00 00 00 00 00 00 00 00 00 00   ................
0x7fe9ee172508  00 00 00 00 00 00 00 00 00 00 00 00 00 00 00 00   ................
0x7fe9ee172518  00 00 00 00 00 00 00 00 00 00 00 00 00 00 00 00   ................
0x7fe9ee172528  00 00 00 00 00 00 00 00 00 00 00 00 00 00 00 00   ................
0x7fe9ee172538  00 00 00 00 00 00 00 00 00 00 00 00 00 00 00 00   ................
Task: apache2 pid 3013 rule r1 addr 0x7fe9ee16c998
0x7fe9ee16c998  31 39 32 2e 31 36 38 2e 31 30 2e 32 00 00 00 00   192.168.10.2....
0x7fe9ee16c9a8  38 30 2e 31 30 33 2e 31 31 39 2e 35 38 00 00 00   80.103.119.58...
0x7fe9ee16c9b8  00 00 00 00 00 00 00 00 00 00 00 00 00 00 00 00   ................
0x7fe9ee16c9c8  10 96 32 ee e9 7f 00 00 00 00 00 00 00 00 00 00   ..2.............
0x7fe9ee16c9d8  38 ca 16 ee e9 7f 00 00 00 00 00 00 00 00 00 00   8...............
0x7fe9ee16c9e8  90 c2 16 ee e9 7f 00 00 00 9c 32 ee e9 7f 00 00   ..........2.....
0x7fe9ee16c9f8  00 00 00 00 00 00 00 00 60 ca 16 ee e9 7f 00 00   ........`.......
0x7fe9ee16ca08  00 00 00 00 00 00 00 00 90 c2 16 ee e9 7f 00 00   ................
0x7fe9ee16ca18  a0 c0 16 ee e9 7f 00 00 90 c2 16 ee e9 7f 00 00   ................
0x7fe9ee16ca28  80 cb 16 ee e9 7f 00 00 f0 ca 16 ee e9 7f 00 00   ................
0x7fe9ee16ca38  b0 da 32 ee e9 7f 00 00 18 ca 16 ee e9 7f 00 00   ..2.............
0x7fe9ee16ca48  00 00 00 00 00 00 00 00 00 00 00 00 00 00 00 00   ................
0x7fe9ee16ca58  90 c2 16 ee e9 7f 00 00 50 e1 32 ee e9 7f 00 00   ........P.2.....
0x7fe9ee16ca68  18 ca 16 ee e9 7f 00 00 00 00 00 00 00 00 00 00   ................
0x7fe9ee16ca78  00 00 00 00 00 00 00 00 90 c2 16 ee e9 7f 00 00   ................
0x7fe9ee16ca88  00 00 00 00 00 00 00 00 00 00 00 00 00 00 00 00   ................
Task: apache2 pid 3013 rule r1 addr 0x7fe9ee172448
0x7fe9ee172448  31 39 32 2e 31 36 38 2e 31 30 2e 32 30 30 00 00   192.168.10.200..
0x7fe9ee172458  00 00 00 00 00 00 00 00 00 00 00 00 00 00 00 00   ................
0x7fe9ee172468  47 45 54 20 2f 69 6e 64 65 78 2e 70 68 70 3f 6f   GET./index.php?o
0x7fe9ee172478  70 74 69 6f 6e 3d 63 6f 6d 5f 61 6a 61 78 26 66   ption=com_ajax&f
0x7fe9ee172488  6f 72 6d 61 74 3d 6a 73 6f 6e 20 48 54 54 50 2f   ormat=json.HTTP/
0x7fe9ee172498  31 2e 31 00 4e 2b 53 45 4c 45 43 54 20 31 2c 00   1.1.N+SELECT.1,.
0x7fe9ee1724a8  55 4f 43 6f 6e 74 72 6f 6c 2e 75 6f 63 6f 6e 74   UOControl.uocont
0x7fe9ee1724b8  72 6f 6c 2e 63 6f 6d 00 00 00 00 00 00 00 00 00   rol.com.........
0x7fe9ee1724c8  00 00 00 00 00 00 00 00 00 00 00 00 00 00 00 00   ................
0x7fe9ee1724d8  00 00 00 00 00 00 00 00 00 00 00 00 00 00 00 00   ................
0x7fe9ee1724e8  00 00 00 00 00 00 00 00 00 00 00 00 00 00 00 00   ................
0x7fe9ee1724f8  00 00 00 00 00 00 00 00 00 00 00 00 00 00 00 00   ................
0x7fe9ee172508  00 00 00 00 00 00 00 00 00 00 00 00 00 00 00 00   ................
0x7fe9ee172518  00 00 00 00 00 00 00 00 00 00 00 00 00 00 00 00   ................
0x7fe9ee172528  00 00 00 00 00 00 00 00 00 00 00 00 00 00 00 00   ................
0x7fe9ee172538  00 00 00 00 00 00 00 00 00 00 00 00 00 00 00 00   ................
Task: apache2 pid 3013 rule r1 addr 0x7fe9eff7d358
0x7fe9eff7d358  31 39 32 2e 31 36 38 2e 31 30 2e 32 00 52 54 8e   192.168.10.2.RT.
0x7fe9eff7d368  bf 8c c4 d6 01 7f 00 00 55 12 8f 55 70 03 4a 95   ........U..Up.J.
0x7fe9eff7d378  51 00 00 00 00 00 00 00 08 03 00 00 00 00 00 00   Q...............
0x7fe9eff7d388  20 00 00 00 00 00 00 00 3d fd 81 ad 0d fb 84 e5   ........=.......
0x7fe9eff7d398  40 d2 f7 ef e9 7f 00 00 00 00 00 00 e9 7f 00 00   @...............
0x7fe9eff7d3a8  00 00 00 00 06 00 00 00 00 00 00 00 00 00 00 00   ................
0x7fe9eff7d3b8  52 54 8e bf 8c c4 d6 01 55 12 8f 55 70 03 4a 95   RT......U..Up.J.
0x7fe9eff7d3c8  89 00 00 00 00 00 00 00 58 03 00 00 00 00 00 00   ........X.......
0x7fe9eff7d3d8  53 00 00 00 00 00 00 00 3d fd 81 ad 0d fb 84 e5   S.......=.......
0x7fe9eff7d3e8  fc ae df cf 00 e9 ae c3 0c 00 00 00 50 4f c4 db   ............PO..
0x7fe9eff7d3f8  00 d4 f7 ef e9 7f 00 00 98 d3 f7 ef e9 7f 00 00   ................
0x7fe9eff7d408  18 d6 f7 ef e9 7f 00 00 b8 d1 f7 ef e9 7f 00 00   ................
0x7fe9eff7d418  00 00 00 00 00 00 00 00 b0 f5 f7 ef e9 7f 00 00   ................
0x7fe9eff7d428  53 45 52 56 45 52 5f 4e 41 4d 45 00 e9 7f 00 00   SERVER_NAME.....
0x7fe9eff7d438  1a 00 00 52 54 8e bf 8c c4 d6 01 00 e9 7f 00 00   ...RT...........
0x7fe9eff7d448  55 12 8f 55 70 03 4a 95 41 00 00 00 00 00 00 00   U..Up.J.A.......
Task: apache2 pid 3013 rule r1 addr 0x7fe9eff7d470
0x7fe9eff7d470  31 39 32 2e 31 36 38 2e 31 30 2e 32 00 52 54 8e   192.168.10.2.RT.
0x7fe9eff7d480  bf 8c c4 d6 01 7f 00 00 55 12 8f 55 70 03 4a 95   ........U..Up.J.
0x7fe9eff7d490  18 01 00 00 00 00 00 00 41 00 00 00 00 00 00 00   ........A.......
0x7fe9eff7d4a0  20 00 00 00 00 00 00 00 3d fd 81 ad 0d fb 84 e5   ........=.......
0x7fe9eff7d4b0  df 96 7d af 50 4f c4 db 87 72 b8 af 50 4f c4 db   ..}.PO...r..PO..
0x7fe9eff7d4c0  00 00 00 00 06 00 00 00 00 00 00 00 00 00 00 00   ................
0x7fe9eff7d4d0  52 54 8e bf 8c c4 d6 01 55 12 8f 55 70 03 4a 95   RT......U..Up.J.
0x7fe9eff7d4e0  89 00 00 00 00 00 00 00 50 00 00 00 00 00 00 00   ........P.......
0x7fe9eff7d4f0  53 00 00 00 00 00 00 00 3d fd 81 ad 0d fb 84 e5   S.......=.......
0x7fe9eff7d500  f6 f0 f5 ce 00 e9 ae c3 0c 00 00 00 50 4f c4 db   ............PO..
0x7fe9eff7d510  18 d5 f7 ef e9 7f 00 00 b0 d4 f7 ef e9 7f 00 00   ................
0x7fe9eff7d520  f0 d6 f7 ef e9 7f 00 00 d0 d2 f7 ef e9 7f 00 00   ................
0x7fe9eff7d530  00 00 00 00 00 00 00 00 d0 f3 f7 ef e9 7f 00 00   ................
0x7fe9eff7d540  53 45 52 56 45 52 5f 41 44 44 52 00 09 f1 71 72   SERVER_ADDR...qr
0x7fe9eff7d550  00 00 00 52 54 8e bf 8c c4 d6 01 00 01 00 00 00   ...RT...........
0x7fe9eff7d560  55 12 8f 55 70 03 4a 95 41 00 00 00 00 00 00 00   U..Up.J.A.......
Task: apache2 pid 3014 rule r1 addr 0x7fe9ee15b716
0x7fe9ee15b716  31 39 32 2e 31 36 38 2e 31 30 2e 32 00 0a 6e 61   192.168.10.2..na
0x7fe9ee15b726  6d 65 2c 70 61 73 73 77 6f 72 64 29 2c 32 2c 33   me,password),2,3
0x7fe9ee15b736  2c 34 2c 35 2c 36 2b 66 72 6f 6d 2b 6a 6f 73 5f   ,4,5,6+from+jos_
0x7fe9ee15b746  75 73 65 72 73 2d 2d 00 6f 6d 2f 69 6e 64 65 78   users--.om/index
0x7fe9ee15b756  2e 70 68 70 3f 6f 70 74 69 6f 55 73 65 72 2d 41   .php?optioUser-A
0x7fe9ee15b766  67 65 6e 74 00 20 4d 6f 7a 69 6c 6c 61 2f 35 2e   gent..Mozilla/5.
0x7fe9ee15b776  30 20 28 58 31 31 3b 20 55 62 75 6e 74 75 3b 20   0.(X11;.Ubuntu;.
0x7fe9ee15b786  4c 69 6e 75 78 20 78 38 36 5f 36 34 3b 20 72 76   Linux.x86_64;.rv
0x7fe9ee15b796  3a 36 39 2e 30 29 20 47 65 63 6b 6f 2f 32 30 31   :69.0).Gecko/201
0x7fe9ee15b7a6  30 30 31 30 31 20 46 69 72 65 66 6f 78 2f 36 39   00101.Firefox/69
0x7fe9ee15b7b6  2e 30 00 0a 2c 32 2c 33 2c 34 41 63 63 65 70 74   .0..,2,3,4Accept
0x7fe9ee15b7c6  00 20 2a 2f 2a 00 0a 5f 75 73 65 72 73 2d 2d 00   ..*/*.._users--.
0x7fe9ee15b7d6  20 4e 2f 69 6e 64 65 78 2e 70 68 70 00 33 2e 31   .N/index.php.3.1
0x7fe9ee15b7e6  31 39 6f 70 34 30 34 00 3d 63 6f 6d 5f 74 69 6d   19op404.=com_tim
0x7fe9ee15b7f6  65 72 65 74 75 72 6e 73 26 76 69 65 77 3d 74 34   ereturns&view=t4
0x7fe9ee15b806  31 30 35 00 74 75 72 6e 73 26 41 63 63 65 70 74   105.turns&Accept
Task: apache2 pid 3014 rule r1 addr 0x7fe9ee15b910
0x7fe9ee15b910  31 39 32 2e 31 36 38 2e 31 30 2e 32 2f 00 0a 6f   192.168.10.2/..o
0x7fe9ee15b920  70 74 69 6f 6e 3d 63 6f 6d 5f 79 65 6c 6c 6f 77   ption=com_yellow
0x7fe9ee15b930  70 61 67 65 73 26 63 61 74 3d 2d 31 39 32 33 2b   pages&cat=-1923+
0x7fe9ee15b940  55 4e 49 4f 4e 2b 53 45 4c 45 43 54 20 31 2c 63   UNION+SELECT.1,c
0x7fe9ee15b950  43 6f 6f 6b 69 65 00 20 62 36 32 63 33 32 31 64   Cookie..b62c321d
0x7fe9ee15b960  30 30 65 32 35 33 36 30 33 62 38 62 32 64 39 64   00e253603b8b2d9d
0x7fe9ee15b970  62 30 31 31 64 30 61 38 3d 6e 35 33 6e 74 6c 6d   b011d0a8=n53ntlm
0x7fe9ee15b980  6d 66 68 6b 37 74 36 36 74 76 65 39 37 6d 32 37   mfhk7t66tve97m27
0x7fe9ee15b990  75 30 34 00 0a 37 2c 31 38 2c 31 39 2c 32 30 2c   u04..7,18,19,20,
0x7fe9ee15b9a0  00 0a 2c 32 32 2c 32 33 2c 32 34 2c 32 35 2c 32   ..,22,23,24,25,2
0x7fe9ee15b9b0  36 2c 32 37 2c 32 38 2c 32 39 2c 33 30 2c 33 31   6,27,28,29,30,31
0x7fe9ee15b9c0  2c 33 32 2c 33 33 2c 33 34 2c 33 35 2c 33 36 2c   ,32,33,34,35,36,
0x7fe9ee15b9d0  33 37 2b 66 72 6f 6d 2b 6a 6f 73 5f 75 73 65 72   37+from+jos_user
0x7fe9ee15b9e0  73 2d 2d 2b 55 6e 69 6f 6e 2b 73 65 6c 65 63 74   s--+Union+select
0x7fe9ee15b9f0  d8 a4 15 ee e9 7f 00 00 08 a5 15 ee e9 7f 00 00   ................
0x7fe9ee15ba00  f0 a4 15 ee e9 7f 00 00 20 a5 15 ee e9 7f 00 00   ................
Task: apache2 pid 3014 rule r1 addr 0x7fe9ee15ba70
0x7fe9ee15ba70  31 39 32 2e 31 36 38 2e 31 30 2e 32 00 00 00 00   192.168.10.2....
0x7fe9ee15ba80  f0 a2 32 ee e9 7f 00 00 f0 ee 15 ee e9 7f 00 00   ..2.............
0x7fe9ee15ba90  c8 ca 16 ee e9 7f 00 00 a0 a0 15 ee e9 7f 00 00   ................
0x7fe9ee15baa0  90 c2 16 ee e9 7f 00 00 30 bb 15 ee e9 7f 00 00   ........0.......
0x7fe9ee15bab0  48 8a 32 ee e9 7f 00 00 d8 e4 15 ee e9 7f 00 00   H.2.............
0x7fe9ee15bac0  d8 e4 15 ee e9 7f 00 00 d0 ba 15 ee e9 7f 00 00   ................
0x7fe9ee15bad0  28 a0 15 ee e9 7f 00 00 10 00 00 00 00 00 00 00   (...............
0x7fe9ee15bae0  04 00 00 00 00 00 00 00 f0 ba 15 ee e9 7f 00 00   ................
0x7fe9ee15baf0  00 00 00 00 00 00 00 00 00 00 00 00 00 00 00 00   ................
0x7fe9ee15bb00  00 00 00 00 00 00 00 00 00 00 00 00 00 00 00 00   ................
0x7fe9ee15bb10  00 00 00 00 00 00 00 00 00 00 00 00 00 00 00 00   ................
0x7fe9ee15bb20  00 00 00 00 00 00 00 00 00 00 00 00 00 00 00 00   ................
0x7fe9ee15bb30  2f 69 6e 64 65 78 2e 70 68 70 00 ee e9 7f 00 00   /index.php......
0x7fe9ee15bb40  2f 76 61 72 2f 77 77 77 2f 69 6e 64 65 78 2e 70   /var/www/index.p
0x7fe9ee15bb50  68 70 00 00 00 00 00 00 2f 76 61 72 2f 77 77 77   hp....../var/www
0x7fe9ee15bb60  2f 69 6e 64 65 78 2e 70 68 70 00 00 00 00 00 00   /index.php......
Task: apache2 pid 3014 rule r1 addr 0x7fe9ee15ebc0
0x7fe9ee15ebc0  31 39 32 2e 31 36 38 2e 31 30 2e 32 00 7f 00 00   192.168.10.2....
0x7fe9ee15ebd0  3c 61 64 64 72 65 73 73 3e 41 70 61 63 68 65 2f   <address>Apache/
0x7fe9ee15ebe0  32 2e 32 2e 32 32 20 28 55 62 75 6e 74 75 29 20   2.2.22.(Ubuntu).
0x7fe9ee15ebf0  53 65 72 76 65 72 20 61 74 20 31 39 32 2e 31 36   Server.at.192.16
0x7fe9ee15ec00  38 2e 31 30 2e 32 20 50 6f 72 74 20 38 30 3c 2f   8.10.2.Port.80</
0x7fe9ee15ec10  61 64 64 72 65 73 73 3e 0a 00 41 43 65 20 50 61   address>..ACe.Pa
0x7fe9ee15ec20  31 39 32 2e 31 36 38 2e 31 30 2e 32 00 7f 00 00   192.168.10.2....
0x7fe9ee15ec30  38 30 00 50 09 09 09 09 ad 07 3a ee e9 7f 00 00   80.P......:.....
0x7fe9ee15ec40  33 39 33 30 36 00 00 00 2f 69 6e 64 65 78 2e 70   39306.../index.p
0x7fe9ee15ec50  68 70 3f 6f 70 74 69 6f 6e 3d 63 6f 6d 5f 61 6a   hp?option=com_aj
0x7fe9ee15ec60  61 78 26 66 6f 72 6d 61 74 3d 6a 73 6f 6e 00 00   ax&format=json..
0x7fe9ee15ec70  28 a0 15 ee e9 7f 00 00 78 ec 15 ee e9 7f 00 00   (.......x.......
0x7fe9ee15ec80  78 ec 15 ee e9 7f 00 00 28 a0 16 ee e9 7f 00 00   x.......(.......
0x7fe9ee15ec90  08 b6 15 ee e9 7f 00 00 70 ec 15 ee e9 7f 00 00   ........p.......
0x7fe9ee15eca0  d0 32 cc ed e9 7f 00 00 cc 0e aa ed e9 7f 00 00   .2..............
0x7fe9ee15ecb0  6f 70 74 69 6f 6e 3d 63 6f 6d 5f 61 6a 61 78 26   option=com_ajax&
Task: apache2 pid 3014 rule r1 addr 0x7fe9ee15ebfa
0x7fe9ee15ebfa  31 39 32 2e 31 36 38 2e 31 30 2e 32 20 50 6f 72   192.168.10.2.Por
0x7fe9ee15ec0a  74 20 38 30 3c 2f 61 64 64 72 65 73 73 3e 0a 00   t.80</address>..
0x7fe9ee15ec1a  41 43 65 20 50 61 31 39 32 2e 31 36 38 2e 31 30   ACe.Pa192.168.10
0x7fe9ee15ec2a  2e 32 00 7f 00 00 38 30 00 50 09 09 09 09 ad 07   .2....80.P......
0x7fe9ee15ec3a  3a ee e9 7f 00 00 33 39 33 30 36 00 00 00 2f 69   :.....39306.../i
0x7fe9ee15ec4a  6e 64 65 78 2e 70 68 70 3f 6f 70 74 69 6f 6e 3d   ndex.php?option=
0x7fe9ee15ec5a  63 6f 6d 5f 61 6a 61 78 26 66 6f 72 6d 61 74 3d   com_ajax&format=
0x7fe9ee15ec6a  6a 73 6f 6e 00 00 28 a0 15 ee e9 7f 00 00 78 ec   json..(.......x.
0x7fe9ee15ec7a  15 ee e9 7f 00 00 78 ec 15 ee e9 7f 00 00 28 a0   ......x.......(.
0x7fe9ee15ec8a  16 ee e9 7f 00 00 08 b6 15 ee e9 7f 00 00 70 ec   ..............p.
0x7fe9ee15ec9a  15 ee e9 7f 00 00 d0 32 cc ed e9 7f 00 00 cc 0e   .......2........
0x7fe9ee15ecaa  aa ed e9 7f 00 00 6f 70 74 69 6f 6e 3d 63 6f 6d   ......option=com
0x7fe9ee15ecba  5f 61 6a 61 78 26 66 6f 72 6d 61 74 3d 6a 28 e0   _ajax&format=j(.
0x7fe9ee15ecca  15 ee e9 7f 00 00 18 00 00 00 00 00 00 00 05 00   ................
0x7fe9ee15ecda  00 00 20 62 65 6c f0 ed 15 ee e9 7f 00 00 00 00   ...bel..........
0x7fe9ee15ecea  00 00 65 78 2e 70 68 70 00 09 09 09 09 3c 58 2d   ..ex.php.....<X-
Task: apache2 pid 3014 rule r1 addr 0x7fe9ee15ec20
0x7fe9ee15ec20  31 39 32 2e 31 36 38 2e 31 30 2e 32 00 7f 00 00   192.168.10.2....
0x7fe9ee15ec30  38 30 00 50 09 09 09 09 ad 07 3a ee e9 7f 00 00   80.P......:.....
0x7fe9ee15ec40  33 39 33 30 36 00 00 00 2f 69 6e 64 65 78 2e 70   39306.../index.p
0x7fe9ee15ec50  68 70 3f 6f 70 74 69 6f 6e 3d 63 6f 6d 5f 61 6a   hp?option=com_aj
0x7fe9ee15ec60  61 78 26 66 6f 72 6d 61 74 3d 6a 73 6f 6e 00 00   ax&format=json..
0x7fe9ee15ec70  28 a0 15 ee e9 7f 00 00 78 ec 15 ee e9 7f 00 00   (.......x.......
0x7fe9ee15ec80  78 ec 15 ee e9 7f 00 00 28 a0 16 ee e9 7f 00 00   x.......(.......
0x7fe9ee15ec90  08 b6 15 ee e9 7f 00 00 70 ec 15 ee e9 7f 00 00   ........p.......
0x7fe9ee15eca0  d0 32 cc ed e9 7f 00 00 cc 0e aa ed e9 7f 00 00   .2..............
0x7fe9ee15ecb0  6f 70 74 69 6f 6e 3d 63 6f 6d 5f 61 6a 61 78 26   option=com_ajax&
0x7fe9ee15ecc0  66 6f 72 6d 61 74 3d 6a 28 e0 15 ee e9 7f 00 00   format=j(.......
0x7fe9ee15ecd0  18 00 00 00 00 00 00 00 05 00 00 00 20 62 65 6c   .............bel
0x7fe9ee15ece0  f0 ed 15 ee e9 7f 00 00 00 00 00 00 65 78 2e 70   ............ex.p
0x7fe9ee15ecf0  68 70 00 09 09 09 09 3c 58 2d 50 6f 77 65 72 65   hp.....<X-Powere
0x7fe9ee15ed00  64 2d 42 79 00 43 6f 6d 50 48 50 2f 35 2e 33 2e   d-By.ComPHP/5.3.
0x7fe9ee15ed10  31 30 2d 31 75 62 75 6e 74 75 33 2e 31 33 00 09   10-1ubuntu3.13..
Task: apache2 pid 3014 rule r1 addr 0x7fe9ee15f798
0x7fe9ee15f798  31 39 32 2e 31 36 38 2e 31 30 2e 32 30 30 20 2d   192.168.10.200.-
0x7fe9ee15f7a8  20 2d 20 5b 30 33 2f 4a 75 6c 2f 32 30 32 30 3a   .-.[03/Jul/2020:
0x7fe9ee15f7b8  31 30 3a 33 30 3a 31 32 20 2b 30 32 30 30 5d 20   10:30:12.+0200].
0x7fe9ee15f7c8  22 47 45 54 20 2f 69 6e 64 65 78 2e 70 68 70 3f   "GET./index.php?
0x7fe9ee15f7d8  6f 70 74 69 6f 6e 3d 63 6f 6d 5f 61 6a 61 78 26   option=com_ajax&
0x7fe9ee15f7e8  66 6f 72 6d 61 74 3d 6a 73 6f 6e 20 48 54 54 50   format=json.HTTP
0x7fe9ee15f7f8  2f 31 2e 31 22 20 32 30 30 20 35 34 37 20 22 68   /1.1".200.547."h
0x7fe9ee15f808  74 74 70 3a 2f 2f 31 39 32 2e 31 36 38 2e 31 30   ttp://192.168.10
0x7fe9ee15f818  2e 32 2f 22 20 22 4d 6f 7a 69 6c 6c 61 2f 35 2e   .2/"."Mozilla/5.
0x7fe9ee15f828  30 20 28 58 31 31 3b 20 55 62 75 6e 74 75 3b 20   0.(X11;.Ubuntu;.
0x7fe9ee15f838  4c 69 6e 75 78 20 78 38 36 5f 36 34 3b 20 72 76   Linux.x86_64;.rv
0x7fe9ee15f848  3a 36 39 2e 30 29 20 47 65 63 6b 6f 2f 32 30 31   :69.0).Gecko/201
0x7fe9ee15f858  30 30 31 30 31 20 46 69 72 65 66 6f 78 2f 36 39   00101.Firefox/69
0x7fe9ee15f868  2e 30 22 0a 30 00 00 00 f0 a2 32 ee e9 7f 00 00   .0".0.....2.....
0x7fe9ee15f878  b0 5b 16 ee e9 7f 00 00 c8 ca 16 ee e9 7f 00 00   .[..............
0x7fe9ee15f888  a0 e0 15 ee e9 7f 00 00 41 63 63 65 70 74 2d 45   ........Accept-E
Task: apache2 pid 3014 rule r1 addr 0x7fe9ee15f80e
0x7fe9ee15f80e  31 39 32 2e 31 36 38 2e 31 30 2e 32 2f 22 20 22   192.168.10.2/"."
0x7fe9ee15f81e  4d 6f 7a 69 6c 6c 61 2f 35 2e 30 20 28 58 31 31   Mozilla/5.0.(X11
0x7fe9ee15f82e  3b 20 55 62 75 6e 74 75 3b 20 4c 69 6e 75 78 20   ;.Ubuntu;.Linux.
0x7fe9ee15f83e  78 38 36 5f 36 34 3b 20 72 76 3a 36 39 2e 30 29   x86_64;.rv:69.0)
0x7fe9ee15f84e  20 47 65 63 6b 6f 2f 32 30 31 30 30 31 30 31 20   .Gecko/20100101.
0x7fe9ee15f85e  46 69 72 65 66 6f 78 2f 36 39 2e 30 22 0a 30 00   Firefox/69.0".0.
0x7fe9ee15f86e  00 00 f0 a2 32 ee e9 7f 00 00 b0 5b 16 ee e9 7f   ....2......[....
0x7fe9ee15f87e  00 00 c8 ca 16 ee e9 7f 00 00 a0 e0 15 ee e9 7f   ................
0x7fe9ee15f88e  00 00 41 63 63 65 70 74 2d 45 6e 63 6f 64 69 6e   ..Accept-Encodin
0x7fe9ee15f89e  67 00 20 67 7a 69 70 2c 20 64 65 66 6c 61 74 65   g..gzip,.deflate
0x7fe9ee15f8ae  00 0a 50 fd 15 ee e9 7f 00 00 c0 f8 15 ee e9 7f   ..P.............
0x7fe9ee15f8be  00 00 28 e0 15 ee e9 7f 00 00 10 00 00 00 00 00   ..(.............
0x7fe9ee15f8ce  00 00 04 00 00 00 e9 7f 00 00 e0 f8 15 ee e9 7f   ................
0x7fe9ee15f8de  00 00 48 6f 73 74 00 20 38 38 2e 31 2e 31 35 2e   ..Host..88.1.15.
0x7fe9ee15f8ee  31 31 35 00 0a 00 00 00 00 00 00 00 00 00 00 00   115.............
0x7fe9ee15f8fe  00 00 00 00 00 00 00 00 00 00 00 00 00 00 00 00   ................
Task: apache2 pid 3014 rule r1 addr 0x7fe9ee164083
0x7fe9ee164083  31 39 32 2e 31 36 38 2e 31 30 2e 32 0d 0a 55 73   192.168.10.2..Us
0x7fe9ee164093  65 72 2d 41 67 65 6e 74 3a 20 4d 6f 7a 69 6c 6c   er-Agent:.Mozill
0x7fe9ee1640a3  61 2f 35 2e 30 20 28 58 31 31 3b 20 55 62 75 6e   a/5.0.(X11;.Ubun
0x7fe9ee1640b3  74 75 3b 20 4c 69 6e 75 78 20 78 38 36 5f 36 34   tu;.Linux.x86_64
0x7fe9ee1640c3  3b 20 72 76 3a 36 39 2e 30 29 20 47 65 63 6b 6f   ;.rv:69.0).Gecko
0x7fe9ee1640d3  2f 32 30 31 30 30 31 30 31 20 46 69 72 65 66 6f   /20100101.Firefo
0x7fe9ee1640e3  78 2f 36 39 2e 30 0d 0a 41 63 63 65 70 74 3a 20   x/69.0..Accept:.
0x7fe9ee1640f3  2a 2f 2a 0d 0a 41 63 63 65 70 74 2d 4c 61 6e 67   */*..Accept-Lang
0x7fe9ee164103  75 61 67 65 3a 20 65 6e 2d 55 53 2c 65 6e 3b 71   uage:.en-US,en;q
0x7fe9ee164113  3d 30 2e 35 0d 0a 41 63 63 65 70 74 2d 45 6e 63   =0.5..Accept-Enc
0x7fe9ee164123  6f 64 69 6e 67 3a 20 67 7a 69 70 2c 20 64 65 66   oding:.gzip,.def
0x7fe9ee164133  6c 61 74 65 0d 0a 43 6f 6e 6e 65 63 74 69 6f 6e   late..Connection
0x7fe9ee164143  3a 20 6b 65 65 70 2d 61 6c 69 76 65 0d 0a 52 65   :.keep-alive..Re
0x7fe9ee164153  66 65 72 65 72 3a 20 68 74 74 70 3a 2f 2f 31 39   ferer:.http://19
0x7fe9ee164163  32 2e 31 36 38 2e 31 30 2e 32 2f 0d 0a 43 6f 6f   2.168.10.2/..Coo
0x7fe9ee164173  6b 69 65 3a 20 62 36 32 63 33 32 31 64 30 30 65   kie:.b62c321d00e
Task: apache2 pid 3014 rule r1 addr 0x7fe9ee164161
0x7fe9ee164161  31 39 32 2e 31 36 38 2e 31 30 2e 32 2f 0d 0a 43   192.168.10.2/..C
0x7fe9ee164171  6f 6f 6b 69 65 3a 20 62 36 32 63 33 32 31 64 30   ookie:.b62c321d0
0x7fe9ee164181  30 65 32 35 33 36 30 33 62 38 62 32 64 39 64 62   0e253603b8b2d9db
0x7fe9ee164191  30 31 31 64 30 61 38 3d 6e 35 33 6e 74 6c 6d 6d   011d0a8=n53ntlmm
0x7fe9ee1641a1  66 68 6b 37 74 36 36 74 76 65 39 37 6d 32 37 75   fhk7t66tve97m27u
0x7fe9ee1641b1  30 34 0d 0a 0d 0a 00 00 00 00 00 00 00 00 00 00   04..............
0x7fe9ee1641c1  00 00 00 00 00 00 00 00 00 00 00 00 00 00 00 00   ................
0x7fe9ee1641d1  00 00 00 00 00 00 00 00 00 00 00 00 00 00 00 00   ................
0x7fe9ee1641e1  00 00 00 00 00 00 00 00 00 00 00 00 00 00 00 00   ................
0x7fe9ee1641f1  00 00 00 00 00 00 00 00 00 00 00 00 00 00 00 00   ................
0x7fe9ee164201  00 00 00 00 00 00 00 00 00 00 00 00 00 00 00 00   ................
0x7fe9ee164211  00 00 00 00 00 00 00 00 00 00 00 00 00 00 00 00   ................
0x7fe9ee164221  00 00 00 00 00 00 00 00 00 00 00 00 00 00 00 00   ................
0x7fe9ee164231  00 00 00 00 00 00 00 00 00 00 00 00 00 00 00 00   ................
0x7fe9ee164241  00 00 00 00 00 00 00 00 00 00 00 00 00 00 00 00   ................
0x7fe9ee164251  00 00 00 00 00 00 00 00 00 00 00 00 00 00 00 00   ................
Task: apache2 pid 3014 rule r1 addr 0x7fe9ee16c998
0x7fe9ee16c998  31 39 32 2e 31 36 38 2e 31 30 2e 32 00 00 00 00   192.168.10.2....
0x7fe9ee16c9a8  31 39 32 2e 31 36 38 2e 31 30 2e 32 30 30 00 00   192.168.10.200..
0x7fe9ee16c9b8  00 00 00 00 00 00 00 00 00 00 00 00 00 00 00 00   ................
0x7fe9ee16c9c8  10 96 32 ee e9 7f 00 00 00 00 00 00 00 00 00 00   ..2.............
0x7fe9ee16c9d8  38 ca 16 ee e9 7f 00 00 00 00 00 00 00 00 00 00   8...............
0x7fe9ee16c9e8  90 c2 16 ee e9 7f 00 00 00 9c 32 ee e9 7f 00 00   ..........2.....
0x7fe9ee16c9f8  00 00 00 00 00 00 00 00 60 ca 16 ee e9 7f 00 00   ........`.......
0x7fe9ee16ca08  00 00 00 00 00 00 00 00 90 c2 16 ee e9 7f 00 00   ................
0x7fe9ee16ca18  a0 c0 16 ee e9 7f 00 00 90 c2 16 ee e9 7f 00 00   ................
0x7fe9ee16ca28  80 cb 16 ee e9 7f 00 00 f0 ca 16 ee e9 7f 00 00   ................
0x7fe9ee16ca38  b0 da 32 ee e9 7f 00 00 18 ca 16 ee e9 7f 00 00   ..2.............
0x7fe9ee16ca48  00 00 00 00 00 00 00 00 00 00 00 00 00 00 00 00   ................
0x7fe9ee16ca58  90 c2 16 ee e9 7f 00 00 50 e1 32 ee e9 7f 00 00   ........P.2.....
0x7fe9ee16ca68  18 ca 16 ee e9 7f 00 00 00 00 00 00 00 00 00 00   ................
0x7fe9ee16ca78  00 00 00 00 00 00 00 00 90 c2 16 ee e9 7f 00 00   ................
0x7fe9ee16ca88  00 00 00 00 00 00 00 00 00 00 00 00 00 00 00 00   ................
Task: apache2 pid 3014 rule r1 addr 0x7fe9ee16c9a8
0x7fe9ee16c9a8  31 39 32 2e 31 36 38 2e 31 30 2e 32 30 30 00 00   192.168.10.200..
0x7fe9ee16c9b8  00 00 00 00 00 00 00 00 00 00 00 00 00 00 00 00   ................
0x7fe9ee16c9c8  10 96 32 ee e9 7f 00 00 00 00 00 00 00 00 00 00   ..2.............
0x7fe9ee16c9d8  38 ca 16 ee e9 7f 00 00 00 00 00 00 00 00 00 00   8...............
0x7fe9ee16c9e8  90 c2 16 ee e9 7f 00 00 00 9c 32 ee e9 7f 00 00   ..........2.....
0x7fe9ee16c9f8  00 00 00 00 00 00 00 00 60 ca 16 ee e9 7f 00 00   ........`.......
0x7fe9ee16ca08  00 00 00 00 00 00 00 00 90 c2 16 ee e9 7f 00 00   ................
0x7fe9ee16ca18  a0 c0 16 ee e9 7f 00 00 90 c2 16 ee e9 7f 00 00   ................
0x7fe9ee16ca28  80 cb 16 ee e9 7f 00 00 f0 ca 16 ee e9 7f 00 00   ................
0x7fe9ee16ca38  b0 da 32 ee e9 7f 00 00 18 ca 16 ee e9 7f 00 00   ..2.............
0x7fe9ee16ca48  00 00 00 00 00 00 00 00 00 00 00 00 00 00 00 00   ................
0x7fe9ee16ca58  90 c2 16 ee e9 7f 00 00 50 e1 32 ee e9 7f 00 00   ........P.2.....
0x7fe9ee16ca68  18 ca 16 ee e9 7f 00 00 00 00 00 00 00 00 00 00   ................
0x7fe9ee16ca78  00 00 00 00 00 00 00 00 90 c2 16 ee e9 7f 00 00   ................
0x7fe9ee16ca88  00 00 00 00 00 00 00 00 00 00 00 00 00 00 00 00   ................
0x7fe9ee16ca98  f4 01 00 00 14 00 00 00 28 00 00 00 00 00 00 00   ........(.......
Task: apache2 pid 3014 rule r1 addr 0x7fe9ee172448
0x7fe9ee172448  31 39 32 2e 31 36 38 2e 31 30 2e 32 30 30 00 00   192.168.10.200..
0x7fe9ee172458  00 00 00 00 00 00 00 00 00 00 00 00 00 00 00 00   ................
0x7fe9ee172468  47 45 54 20 2f 69 6e 64 65 78 2e 70 68 70 3f 6f   GET./index.php?o
0x7fe9ee172478  70 74 69 6f 6e 3d 63 6f 6d 5f 61 6a 61 78 26 66   ption=com_ajax&f
0x7fe9ee172488  6f 72 6d 61 74 3d 6a 73 6f 6e 20 48 54 54 50 2f   ormat=json.HTTP/
0x7fe9ee172498  31 2e 31 00 4e 2b 53 45 4c 45 43 54 20 31 2c 00   1.1.N+SELECT.1,.
0x7fe9ee1724a8  55 4f 43 6f 6e 74 72 6f 6c 2e 75 6f 63 6f 6e 74   UOControl.uocont
0x7fe9ee1724b8  72 6f 6c 2e 63 6f 6d 00 00 00 00 00 00 00 00 00   rol.com.........
0x7fe9ee1724c8  00 00 00 00 00 00 00 00 00 00 00 00 00 00 00 00   ................
0x7fe9ee1724d8  00 00 00 00 00 00 00 00 00 00 00 00 00 00 00 00   ................
0x7fe9ee1724e8  00 00 00 00 00 00 00 00 00 00 00 00 00 00 00 00   ................
0x7fe9ee1724f8  00 00 00 00 00 00 00 00 00 00 00 00 00 00 00 00   ................
0x7fe9ee172508  00 00 00 00 00 00 00 00 00 00 00 00 00 00 00 00   ................
0x7fe9ee172518  00 00 00 00 00 00 00 00 00 00 00 00 00 00 00 00   ................
0x7fe9ee172528  00 00 00 00 00 00 00 00 00 00 00 00 00 00 00 00   ................
0x7fe9ee172538  00 00 00 00 00 00 00 00 00 00 00 00 00 00 00 00   ................
Task: apache2 pid 3014 rule r1 addr 0x7fe9ef591e4c
0x7fe9ef591e4c  31 39 32 2e 31 36 38 2e 31 30 2e 32 2f 69 6e 64   192.168.10.2/ind
0x7fe9ef591e5c  65 78 2e 70 68 70 2f 32 2d 75 6e 63 00 00 00 00   ex.php/2-unc....
0x7fe9ef591e6c  00 00 00 00 00 00 00 00 00 00 00 00 00 00 00 00   ................
0x7fe9ef591e7c  00 00 00 00 00 00 00 00 00 00 00 00 00 00 00 00   ................
0x7fe9ef591e8c  00 00 00 00 00 00 00 00 00 00 00 00 00 00 00 00   ................
0x7fe9ef591e9c  00 00 00 00 00 00 00 00 3a 22 73 65 f0 3e 8e ef   ........:"se.>..
0x7fe9ef591eac  e9 7f 00 00 13 00 00 00 d5 01 00 00 80 b9 5c ef   ..............\.
0x7fe9ef591ebc  e9 7f 00 00 33 00 00 00 63 36 61 65 00 00 00 00   ....3...c6ae....
0x7fe9ef591ecc  00 00 00 00 24 09 d7 8d a5 76 d2 81 61 30 30 22   ....$....v..a00"
0x7fe9ef591edc  3b 7d 00 24 09 d7 8d a5 76 d2 81 30 e5 8f 32 49   ;}.$....v..0..2I
0x7fe9ef591eec  98 4c 98 6e a0 02 00 00 00 00 00 00 e9 02 00 00   .L.n............
0x7fe9ef591efc  00 00 00 00 20 00 00 00 00 00 00 00 f5 13 e5 af   ................
0x7fe9ef591f0c  80 09 9d c8 7f cd 3f af 50 4f c4 db 07 10 40 af   ......?.PO....@.
0x7fe9ef591f1c  50 4f c4 db 00 00 00 00 00 00 00 00 00 00 00 00   PO..............
0x7fe9ef591f2c  00 00 00 00 00 00 00 00 00 00 00 00 e5 8f 32 49   ..............2I
0x7fe9ef591f3c  98 4c 98 6e 50 00 00 00 00 00 00 00 51 00 00 00   .L.nP.......Q...
Task: apache2 pid 3014 rule r1 addr 0x7fe9ef724887
0x7fe9ef724887  31 39 32 2e 31 36 38 2e 31 30 2e 32 2f 69 6e 64   192.168.10.2/ind
0x7fe9ef724897  65 78 2e 70 68 70 3f 6f 70 74 69 6f 6e 3d 63 6f   ex.php?option=co
0x7fe9ef7248a7  6d 5f 61 6a 61 78 26 66 6f 72 6d 61 74 3d 6a 73   m_ajax&format=js
0x7fe9ef7248b7  6f 6e 00 00 00 00 00 00 00 00 24 09 d7 8d a5 76   on........$....v
0x7fe9ef7248c7  d2 81 45 72 ef e9 7f 00 00 e5 8f 32 49 98 4c 98   ..Er.......2I.L.
0x7fe9ef7248d7  6e 71 00 00 00 00 00 00 00 c0 03 00 00 00 00 00   nq..............
0x7fe9ef7248e7  00 40 00 00 00 00 00 00 00 f5 13 e5 af 80 09 9d   .@..............
0x7fe9ef7248f7  c8 00 00 00 00 00 00 00 00 00 00 00 00 00 00 00   ................
0x7fe9ef724907  00 00 00 00 00 00 00 00 00 00 00 00 00 00 00 00   ................
0x7fe9ef724917  00 00 00 00 00 00 00 00 00 00 00 00 00 00 00 00   ................
0x7fe9ef724927  00 00 00 00 00 00 00 00 00 00 00 00 00 00 00 00   ................
0x7fe9ef724937  00 24 09 d7 8d a5 76 d2 81 e5 8f 32 49 98 4c 98   .$....v....2I.L.
0x7fe9ef724947  6e c8 00 00 00 00 00 00 00 71 00 00 00 00 00 00   n........q......
0x7fe9ef724957  00 18 00 00 00 00 00 00 00 f5 13 e5 af 80 09 9d   ................
0x7fe9ef724967  c8 27 75 b8 af 50 4f c4 db df 28 3e af 50 4f c4   .'u..PO...(>.PO.
0x7fe9ef724977  db 00 00 00 00 00 00 00 00 24 09 d7 8d a5 76 d2   .........$....v.
Task: apache2 pid 3014 rule r1 addr 0x7fe9ef9c47f8
0x7fe9ef9c47f8  31 39 32 2e 31 36 38 2e 31 30 2e 32 2f 69 6e 64   192.168.10.2/ind
0x7fe9ef9c4808  65 78 2e 70 68 70 2f 32 2d 75 6e 63 61 74 65 67   ex.php/2-uncateg
0x7fe9ef9c4818  6f 72 69 73 65 64 2f 31 2d 71 75 69 65 6e 65 73   orised/1-quienes
0x7fe9ef9c4828  2d 73 6f 6d 6f 73 5c 22 3b 73 3a 36 3a 5c 22 65   -somos\";s:6:\"e
0x7fe9ef9c4838  78 70 69 72 79 5c 22 3b 69 3a 31 35 39 33 37 36   xpiry\";i:159376
0x7fe9ef9c4848  30 38 31 32 3b 7d 7d 73 3a 31 33 3a 5c 22 73 65   0812;}}s:13:\"se
0x7fe9ef9c4858  73 73 69 6f 6e 2e 74 6f 6b 65 6e 5c 22 3b 73 3a   ssion.token\";s:
0x7fe9ef9c4868  33 32 3a 5c 22 38 39 39 38 63 37 31 66 65 63 36   32:\"8998c71fec6
0x7fe9ef9c4878  61 65 31 30 36 31 65 38 35 66 66 38 62 66 63 66   ae1061e85ff8bfcf
0x7fe9ef9c4888  36 35 61 30 30 5c 22 3b 7d 27 0a 09 2c 20 60 74   65a00\";}'..,.`t
0x7fe9ef9c4898  69 6d 65 60 20 3d 20 27 31 35 39 33 37 36 35 30   ime`.=.'15937650
0x7fe9ef9c48a8  31 32 27 0a 57 48 45 52 45 20 60 73 65 73 73 69   12'.WHERE.`sessi
0x7fe9ef9c48b8  6f 6e 5f 69 64 60 20 3d 20 27 6e 35 33 6e 74 6c   on_id`.=.'n53ntl
0x7fe9ef9c48c8  6d 6d 66 68 6b 37 74 36 36 74 76 65 39 37 6d 32   mmfhk7t66tve97m2
0x7fe9ef9c48d8  37 75 30 34 27 34 30 27 0a 57 48 45 52 45 20 60   7u04'40'.WHERE.`
0x7fe9ef9c48e8  73 65 73 73 69 6f 6e 5f 69 64 60 20 3d 20 27 6c   session_id`.=.'l
Task: apache2 pid 3014 rule r1 addr 0x7fe9efd900c4
0x7fe9efd900c4  31 39 32 2e 31 36 38 2e 31 30 2e 32 2f 69 6e 64   192.168.10.2/ind
0x7fe9efd900d4  65 78 2e 70 68 70 2f 32 2d 75 6e 63 61 74 65 67   ex.php/2-uncateg
0x7fe9efd900e4  6f 72 69 73 65 64 2f 31 2d 71 75 69 65 6e 65 73   orised/1-quienes
0x7fe9efd900f4  2d 73 6f 6d 6f 73 22 3b 73 3a 36 3a 22 65 78 70   -somos";s:6:"exp
0x7fe9efd90104  69 72 79 22 3b 69 3a 31 35 39 33 37 36 30 38 31   iry";i:159376081
0x7fe9efd90114  32 3b 7d 7d 73 3a 31 33 3a 22 73 65 73 73 69 6f   2;}}s:13:"sessio
0x7fe9efd90124  6e 2e 74 6f 6b 65 6e 22 3b 73 3a 33 32 3a 22 38   n.token";s:32:"8
0x7fe9efd90134  39 39 38 63 37 31 66 65 63 36 61 65 31 30 36 31   998c71fec6ae1061
0x7fe9efd90144  65 38 35 66 66 38 62 66 63 66 36 35 61 30 30 22   e85ff8bfcf65a00"
0x7fe9efd90154  3b 7d 00 00 87 4f 53 af 50 4f c4 db 87 4f 53 af   ;}...OS.PO...OS.
0x7fe9efd90164  50 4f c4 db f0 3e 32 ef e9 7f 00 00 00 00 00 00   PO...>2.........
0x7fe9efd90174  00 00 00 00 00 00 00 00 00 00 00 00 00 00 00 00   ................
0x7fe9efd90184  00 00 00 00 00 00 00 00 00 00 00 00 04 00 00 00   ................
0x7fe9efd90194  00 00 00 00 10 04 00 00 11 00 00 00 00 00 00 00   ................
0x7fe9efd901a4  00 00 00 00 00 00 00 00 24 09 d7 8d a5 76 d2 81   ........$....v..
0x7fe9efd901b4  e9 7f 00 00 e5 8f 32 49 98 4c 98 6e 88 05 00 00   ......2I.L.n....
Task: apache2 pid 3014 rule r1 addr 0x7fe9efd906a4
0x7fe9efd906a4  31 39 32 2e 31 36 38 2e 31 30 2e 32 2f 69 6e 64   192.168.10.2/ind
0x7fe9efd906b4  65 78 2e 70 68 70 2f 32 2d 75 6e 63 61 74 65 67   ex.php/2-uncateg
0x7fe9efd906c4  6f 72 69 73 65 64 2f 31 2d 71 75 69 65 6e 65 73   orised/1-quienes
0x7fe9efd906d4  2d 73 6f 6d 6f 73 22 3b 73 3a 36 3a 22 65 78 70   -somos";s:6:"exp
0x7fe9efd906e4  69 72 79 22 3b 69 3a 31 35 39 33 37 36 30 38 31   iry";i:159376081
0x7fe9efd906f4  32 3b 7d 7d 73 3a 31 33 3a 22 73 65 73 73 69 6f   2;}}s:13:"sessio
0x7fe9efd90704  6e 2e 74 6f 6b 65 6e 22 3b 73 3a 33 32 3a 22 38   n.token";s:32:"8
0x7fe9efd90714  39 39 38 63 37 31 66 65 63 36 61 65 31 30 36 31   998c71fec6ae1061
0x7fe9efd90724  65 38 35 66 66 38 62 66 63 66 36 35 61 30 30 22   e85ff8bfcf65a00"
0x7fe9efd90734  3b 7d 00 24 09 d7 8d a5 76 d2 81 00 e5 8f 32 49   ;}.$....v.....2I
0x7fe9efd90744  98 4c 98 6e 51 00 00 00 00 00 00 00 68 0b 00 00   .L.nQ.......h...
0x7fe9efd90754  00 00 00 00 20 00 00 00 00 00 00 00 f5 13 e5 af   ................
0x7fe9efd90764  80 09 9d c8 d0 7b f7 ef e9 7f 00 00 00 00 00 00   .....{..........
0x7fe9efd90774  00 00 00 00 00 00 00 00 06 00 32 37 00 00 00 00   ..........27....
0x7fe9efd90784  00 00 00 00 24 09 d7 8d a5 76 d2 81 e5 8f 32 49   ....$....v....2I
0x7fe9efd90794  98 4c 98 6e f0 00 00 00 00 00 00 00 51 00 00 00   .L.n........Q...
Task: apache2 pid 3014 rule r1 addr 0x7fe9efdc701c
0x7fe9efdc701c  31 39 32 2e 31 36 38 2e 31 30 2e 32 2f 69 6e 64   192.168.10.2/ind
0x7fe9efdc702c  65 78 2e 70 68 70 2f 32 2d 75 6e 63 61 74 65 67   ex.php/2-uncateg
0x7fe9efdc703c  6f 72 69 73 65 64 2f 31 2d 71 75 69 65 6e 65 73   orised/1-quienes
0x7fe9efdc704c  2d 73 6f 6d 6f 73 5c 22 3b 73 3a 36 3a 5c 22 65   -somos\";s:6:\"e
0x7fe9efdc705c  78 70 69 72 79 5c 22 3b 69 3a 31 35 39 33 37 36   xpiry\";i:159376
0x7fe9efdc706c  30 38 31 32 3b 7d 7d 73 3a 31 33 3a 5c 22 73 65   0812;}}s:13:\"se
0x7fe9efdc707c  73 73 69 6f 6e 2e 74 6f 6b 65 6e 5c 22 3b 73 3a   ssion.token\";s:
0x7fe9efdc708c  33 32 3a 5c 22 38 39 39 38 63 37 31 66 65 63 36   32:\"8998c71fec6
0x7fe9efdc709c  61 65 31 30 36 31 65 38 35 66 66 38 62 66 63 66   ae1061e85ff8bfcf
0x7fe9efdc70ac  36 35 61 30 30 5c 22 3b 7d 27 0a 09 2c 20 60 74   65a00\";}'..,.`t
0x7fe9efdc70bc  69 6d 65 60 20 3d 20 27 31 35 39 33 37 36 35 30   ime`.=.'15937650
0x7fe9efdc70cc  31 32 27 00 24 09 d7 8d a5 76 d2 81 27 5f 5f 64   12'.$....v..'__d
0x7fe9efdc70dc  65 66 61 75 d0 17 00 00 00 00 00 00 61 06 00 00   efau........a...
0x7fe9efdc70ec  00 00 00 00 65 73 73 69 6f 6e 2e 63 6f 75 6e 74   ....ession.count
0x7fe9efdc70fc  65 72 5c 22 6f 3e 56 af 50 4f c4 db 6f 3e 56 af   er\"o>V.PO..o>V.
0x7fe9efdc710c  50 4f c4 db a0 5e f7 ef e9 7f 00 00 00 00 00 00   PO...^..........
Task: apache2 pid 3014 rule r1 addr 0x7fe9efdc7646
0x7fe9efdc7646  31 39 32 2e 31 36 38 2e 31 30 2e 32 2f 69 6e 64   192.168.10.2/ind
0x7fe9efdc7656  65 78 2e 70 68 70 2f 32 2d 75 6e 63 61 74 65 67   ex.php/2-uncateg
0x7fe9efdc7666  6f 72 69 73 65 64 2f 31 2d 71 75 69 65 6e 65 73   orised/1-quienes
0x7fe9efdc7676  2d 73 6f 6d 6f 73 5c 22 3b 73 3a 36 3a 5c 22 65   -somos\";s:6:\"e
0x7fe9efdc7686  78 70 69 72 79 5c 22 3b 69 3a 31 35 39 33 37 36   xpiry\";i:159376
0x7fe9efdc7696  30 38 31 32 3b 7d 7d 73 3a 31 33 3a 5c 22 73 65   0812;}}s:13:\"se
0x7fe9efdc76a6  73 73 69 6f 6e 2e 74 6f 6b 65 6e 5c 22 3b 73 3a   ssion.token\";s:
0x7fe9efdc76b6  33 32 3a 5c 22 38 39 39 38 63 37 31 66 65 63 36   32:\"8998c71fec6
0x7fe9efdc76c6  61 65 31 30 36 31 65 38 35 66 66 38 62 66 63 66   ae1061e85ff8bfcf
0x7fe9efdc76d6  36 35 61 30 30 5c 22 3b 7d 00 24 09 d7 8d a5 76   65a00\";}.$....v
0x7fe9efdc76e6  d2 81 00 00 00 00 00 00 00 00 c0 11 00 00 00 00   ................
0x7fe9efdc76f6  00 00 39 06 00 00 00 00 00 00 20 80 b4 ef e9 7f   ..9.............
0x7fe9efdc7706  00 00 e8 63 b4 ef e9 7f 00 00 5f 38 56 af 50 4f   ...c......_8V.PO
0x7fe9efdc7716  c4 db 5f 38 56 af 50 4f c4 db f8 3e 32 ef e9 7f   .._8V.PO...>2...
0x7fe9efdc7726  00 00 60 5e f7 ef e9 7f 00 00 00 00 00 00 00 00   ..`^............
0x7fe9efdc7736  00 00 00 00 00 00 00 00 00 00 40 15 cb ef e9 7f   ..........@.....
Task: apache2 pid 3014 rule r1 addr 0x7fe9efdebc77
0x7fe9efdebc77  31 39 32 2e 31 36 38 2e 31 30 2e 32 2f 69 6e 64   192.168.10.2/ind
0x7fe9efdebc87  65 78 2e 70 68 70 2f 32 2d 75 6e 63 61 74 65 67   ex.php/2-uncateg
0x7fe9efdebc97  6f 72 69 73 65 64 2f 31 2d 71 75 69 65 6e 65 73   orised/1-quienes
0x7fe9efdebca7  2d 73 6f 6d 6f 73 5c 22 3b 73 3a 36 3a 5c 22 65   -somos\";s:6:\"e
0x7fe9efdebcb7  78 70 69 72 79 5c 22 3b 69 3a 31 35 39 33 37 36   xpiry\";i:159376
0x7fe9efdebcc7  30 38 31 32 3b 7d 7d 73 3a 31 33 3a 5c 22 73 65   0812;}}s:13:\"se
0x7fe9efdebcd7  73 73 69 6f 6e 2e 74 6f 6b 65 6e 5c 22 3b 73 3a   ssion.token\";s:
0x7fe9efdebce7  33 32 3a 5c 22 38 39 39 38 63 37 31 66 65 63 36   32:\"8998c71fec6
0x7fe9efdebcf7  61 65 31 30 36 31 65 38 35 66 66 38 62 66 63 66   ae1061e85ff8bfcf
0x7fe9efdebd07  36 35 61 30 30 5c 22 3b 7d 27 00 24 09 d7 8d a5   65a00\";}'.$....
0x7fe9efdebd17  76 d2 81 00 00 e9 7f 00 00 e5 8f 32 49 98 4c 98   v..........2I.L.
0x7fe9efdebd27  6e e8 0c 00 00 00 00 00 00 49 06 00 00 00 00 00   n........I......
0x7fe9efdebd37  00 79 06 00 00 00 00 00 00 f5 13 e5 af 80 09 9d   .y..............
0x7fe9efdebd47  c8 97 f3 54 af 50 4f c4 db 97 f3 54 af 50 4f c4   ...T.PO....T.PO.
0x7fe9efdebd57  db f0 3e 32 ef e9 7f 00 00 d8 fb d8 ef e9 7f 00   ..>2............
0x7fe9efdebd67  00 78 44 f8 ef e9 7f 00 00 64 65 66 61 75 6c 74   .xD......default
Task: apache2 pid 3014 rule r1 addr 0x7fe9efdec2db
0x7fe9efdec2db  31 39 32 2e 31 36 38 2e 31 30 2e 32 2f 69 6e 64   192.168.10.2/ind
0x7fe9efdec2eb  65 78 2e 70 68 70 2f 32 2d 75 6e 63 61 74 65 67   ex.php/2-uncateg
0x7fe9efdec2fb  6f 72 69 73 65 64 2f 31 2d 71 75 69 65 6e 65 73   orised/1-quienes
0x7fe9efdec30b  2d 73 6f 6d 6f 73 5c 22 3b 73 3a 36 3a 5c 22 65   -somos\";s:6:\"e
0x7fe9efdec31b  78 70 69 72 79 5c 22 3b 69 3a 31 35 39 33 37 36   xpiry\";i:159376
0x7fe9efdec32b  30 38 31 32 3b 7d 7d 73 3a 31 33 3a 5c 22 73 65   0812;}}s:13:\"se
0x7fe9efdec33b  73 73 69 6f 6e 2e 74 6f 6b 65 6e 5c 22 3b 73 3a   ssion.token\";s:
0x7fe9efdec34b  33 32 3a 5c 22 38 39 39 38 63 37 31 66 65 63 36   32:\"8998c71fec6
0x7fe9efdec35b  61 65 31 30 36 31 65 38 35 66 66 38 62 66 63 66   ae1061e85ff8bfcf
0x7fe9efdec36b  36 35 61 30 30 5c 22 3b 7d 27 0a 09 2c 20 60 74   65a00\";}'..,.`t
0x7fe9efdec37b  69 6d 65 60 20 3d 20 27 31 35 39 33 37 36 35 30   ime`.=.'15937650
0x7fe9efdec38b  31 32 27 0a 57 48 45 52 45 20 60 73 65 73 73 69   12'.WHERE.`sessi
0x7fe9efdec39b  6f 6e 5f 69 64 60 20 3d 20 27 6e 35 33 6e 74 6c   on_id`.=.'n53ntl
0x7fe9efdec3ab  6d 6d 66 68 6b 37 74 36 36 74 76 65 39 37 6d 32   mmfhk7t66tve97m2
0x7fe9efdec3bb  37 75 30 34 27 00 24 09 d7 8d a5 76 d2 81 00 00   7u04'.$....v....
0x7fe9efdec3cb  00 00 00 00 00 61 75 6c 74 7c 61 3a 39 38 06 00   .....ault|a:98..
Task: apache2 pid 3014 rule r1 addr 0x7fe9efdec938
0x7fe9efdec938  31 39 32 2e 31 36 38 2e 31 30 2e 32 2f 69 6e 64   192.168.10.2/ind
0x7fe9efdec948  65 78 2e 70 68 70 2f 32 2d 75 6e 63 61 74 65 67   ex.php/2-uncateg
0x7fe9efdec958  6f 72 69 73 65 64 2f 31 2d 71 75 69 65 6e 65 73   orised/1-quienes
0x7fe9efdec968  2d 73 6f 6d 6f 73 5c 22 3b 73 3a 36 3a 5c 22 65   -somos\";s:6:\"e
0x7fe9efdec978  78 70 69 72 79 5c 22 3b 69 3a 31 35 39 33 37 36   xpiry\";i:159376
0x7fe9efdec988  30 38 31 32 3b 7d 7d 73 3a 31 33 3a 5c 22 73 65   0812;}}s:13:\"se
0x7fe9efdec998  73 73 69 6f 6e 2e 74 6f 6b 65 6e 5c 22 3b 73 3a   ssion.token\";s:
0x7fe9efdec9a8  33 32 3a 5c 22 38 39 39 38 63 37 31 66 65 63 36   32:\"8998c71fec6
0x7fe9efdec9b8  61 65 31 30 36 31 65 38 35 66 66 38 62 66 63 66   ae1061e85ff8bfcf
0x7fe9efdec9c8  36 35 61 30 30 5c 22 3b 7d 27 0a 09 2c 20 60 74   65a00\";}'..,.`t
0x7fe9efdec9d8  69 6d 65 60 20 3d 20 27 31 35 39 33 37 36 35 30   ime`.=.'15937650
0x7fe9efdec9e8  31 32 27 00 24 09 d7 8d a5 76 d2 81 00 00 00 00   12'.$....v......
0x7fe9efdec9f8  62 00 00 00 55 00 00 00 24 09 d7 8d a5 76 d2 81   b...U...$....v..
0x7fe9efdeca08  e5 8f 32 49 98 4c 98 6e 39 00 00 00 00 00 00 00   ..2I.L.n9.......
0x7fe9efdeca18  30 13 00 00 00 00 00 00 08 00 00 00 00 00 00 00   0...............
0x7fe9efdeca28  f5 13 e5 af 80 09 9d c8 6d 65 73 73 61 67 65 00   ........message.
Task: apache2 pid 3014 rule r1 addr 0x7fe9eff75dc2
0x7fe9eff75dc2  31 39 32 2e 31 36 38 2e 31 30 2e 32 2f 69 6e 64   192.168.10.2/ind
0x7fe9eff75dd2  65 78 2e 70 68 70 2f 32 2d 75 6e 63 61 74 65 67   ex.php/2-uncateg
0x7fe9eff75de2  6f 72 69 73 65 64 2f 31 2d 71 75 69 65 6e 65 73   orised/1-quienes
0x7fe9eff75df2  2d 73 6f 6d 6f 73 22 3b 73 3a 36 3a 22 65 78 70   -somos";s:6:"exp
0x7fe9eff75e02  69 72 79 22 3b 69 3a 31 35 39 33 37 36 30 38 31   iry";i:159376081
0x7fe9eff75e12  32 3b 7d 7d 73 3a 31 33 3a 22 73 65 73 73 69 6f   2;}}s:13:"sessio
0x7fe9eff75e22  6e 2e 74 6f 6b 65 6e 22 3b 73 3a 33 32 3a 22 38   n.token";s:32:"8
0x7fe9eff75e32  39 39 38 63 37 31 66 65 63 36 61 65 31 30 36 31   998c71fec6ae1061
0x7fe9eff75e42  65 38 35 66 66 38 62 66 63 66 36 35 61 30 30 22   e85ff8bfcf65a00"
0x7fe9eff75e52  3b 7d 00 24 09 d7 8d a5 76 d2 81 7f 00 00 e5 8f   ;}.$....v.......
0x7fe9eff75e62  32 49 98 4c 98 6e d8 13 00 00 00 00 00 00 a9 05   2I.L.n..........
0x7fe9eff75e72  00 00 00 00 00 00 75 06 00 00 00 00 00 00 f5 13   ......u.........
0x7fe9eff75e82  e5 af 80 09 9d c8 d7 10 7d af 50 4f c4 db d7 10   ........}.PO....
0x7fe9eff75e92  7d af 50 4f c4 db b8 6a dc ef e9 7f 00 00 00 00   }.PO...j........
0x7fe9eff75ea2  00 00 00 00 00 00 00 00 00 00 00 00 00 00 75 6c   ..............ul
0x7fe9eff75eb2  74 7c 61 3a 39 3a 7b 73 3a 31 35 3a 5c 22 73 65   t|a:9:{s:15:\"se
Task: apache2 pid 3014 rule r1 addr 0x7fe9eff76417
0x7fe9eff76417  31 39 32 2e 31 36 38 2e 31 30 2e 32 2f 69 6e 64   192.168.10.2/ind
0x7fe9eff76427  65 78 2e 70 68 70 2f 32 2d 75 6e 63 61 74 65 67   ex.php/2-uncateg
0x7fe9eff76437  6f 72 69 73 65 64 2f 31 2d 71 75 69 65 6e 65 73   orised/1-quienes
0x7fe9eff76447  2d 73 6f 6d 6f 73 5c 22 3b 73 3a 36 3a 5c 22 65   -somos\";s:6:\"e
0x7fe9eff76457  78 70 69 72 79 5c 22 3b 69 3a 31 35 39 33 37 36   xpiry\";i:159376
0x7fe9eff76467  30 38 31 32 3b 7d 7d 73 3a 31 33 3a 5c 22 73 65   0812;}}s:13:\"se
0x7fe9eff76477  73 73 69 6f 6e 2e 74 6f 6b 65 6e 5c 22 3b 73 3a   ssion.token\";s:
0x7fe9eff76487  33 32 3a 5c 22 38 39 39 38 63 37 31 66 65 63 36   32:\"8998c71fec6
0x7fe9eff76497  61 65 31 30 36 31 65 38 35 66 66 38 62 66 63 66   ae1061e85ff8bfcf
0x7fe9eff764a7  36 35 61 30 30 5c 22 3b 7d 27 0a 09 2c 20 60 74   65a00\";}'..,.`t
0x7fe9eff764b7  69 6d 65 60 20 3d 20 27 31 35 39 33 37 36 35 30   ime`.=.'15937650
0x7fe9eff764c7  31 32 27 0a 57 48 45 52 45 20 60 73 65 73 73 69   12'.WHERE.`sessi
0x7fe9eff764d7  6f 6e 5f 69 64 60 20 3d 20 27 6e 35 33 6e 74 6c   on_id`.=.'n53ntl
0x7fe9eff764e7  6d 6d 66 68 6b 37 74 36 36 74 76 65 39 37 6d 32   mmfhk7t66tve97m2
0x7fe9eff764f7  37 75 30 34 27 00 24 09 d7 8d a5 76 d2 81 81 00   7u04'.$....v....
0x7fe9eff76507  00 e5 8f 32 49 98 4c 98 6e a9 06 00 00 00 00 00   ...2I.L.n.......
Task: apache2 pid 3014 rule r1 addr 0x7fe9eff76ac0
0x7fe9eff76ac0  31 39 32 2e 31 36 38 2e 31 30 2e 32 2f 69 6e 64   192.168.10.2/ind
0x7fe9eff76ad0  65 78 2e 70 68 70 2f 32 2d 75 6e 63 61 74 65 67   ex.php/2-uncateg
0x7fe9eff76ae0  6f 72 69 73 65 64 2f 31 2d 71 75 69 65 6e 65 73   orised/1-quienes
0x7fe9eff76af0  2d 73 6f 6d 6f 73 5c 22 3b 73 3a 36 3a 5c 22 65   -somos\";s:6:\"e
0x7fe9eff76b00  78 70 69 72 79 5c 22 3b 69 3a 31 35 39 33 37 36   xpiry\";i:159376
0x7fe9eff76b10  30 38 31 32 3b 7d 7d 73 3a 31 33 3a 5c 22 73 65   0812;}}s:13:\"se
0x7fe9eff76b20  73 73 69 6f 6e 2e 74 6f 6b 65 6e 5c 22 3b 73 3a   ssion.token\";s:
0x7fe9eff76b30  33 32 3a 5c 22 38 39 39 38 63 37 31 66 65 63 36   32:\"8998c71fec6
0x7fe9eff76b40  61 65 31 30 36 31 65 38 35 66 66 38 62 66 63 66   ae1061e85ff8bfcf
0x7fe9eff76b50  36 35 61 30 30 5c 22 3b 7d 27 0a 09 2c 20 60 74   65a00\";}'..,.`t
0x7fe9eff76b60  69 6d 65 60 20 3d 20 27 31 35 39 33 37 36 35 30   ime`.=.'15937650
0x7fe9eff76b70  31 32 27 0a 57 48 45 52 45 20 60 73 65 73 73 69   12'.WHERE.`sessi
0x7fe9eff76b80  6f 6e 5f 69 64 60 20 3d 20 27 6e 35 33 6e 74 6c   on_id`.=.'n53ntl
0x7fe9eff76b90  6d 6d 66 68 6b 37 74 36 36 74 76 65 39 37 6d 32   mmfhk7t66tve97m2
0x7fe9eff76ba0  37 75 30 34 27 00 24 09 d7 8d a5 76 d2 81 00 00   7u04'.$....v....
0x7fe9eff76bb0  e5 8f 32 49 98 4c 98 6e 88 06 00 00 00 00 00 00   ..2I.L.n........
Task: apache2 pid 3014 rule r1 addr 0x7fe9eff77146
0x7fe9eff77146  31 39 32 2e 31 36 38 2e 31 30 2e 32 2f 69 6e 64   192.168.10.2/ind
0x7fe9eff77156  65 78 2e 70 68 70 2f 32 2d 75 6e 63 61 74 65 67   ex.php/2-uncateg
0x7fe9eff77166  6f 72 69 73 65 64 2f 31 2d 71 75 69 65 6e 65 73   orised/1-quienes
0x7fe9eff77176  2d 73 6f 6d 6f 73 5c 22 3b 73 3a 36 3a 5c 22 65   -somos\";s:6:\"e
0x7fe9eff77186  78 70 69 72 79 5c 22 3b 69 3a 31 35 39 33 37 36   xpiry\";i:159376
0x7fe9eff77196  30 38 31 32 3b 7d 7d 73 3a 31 33 3a 5c 22 73 65   0812;}}s:13:\"se
0x7fe9eff771a6  73 73 69 6f 6e 2e 74 6f 6b 65 6e 5c 22 3b 73 3a   ssion.token\";s:
0x7fe9eff771b6  33 32 3a 5c 22 38 39 39 38 63 37 31 66 65 63 36   32:\"8998c71fec6
0x7fe9eff771c6  61 65 31 30 36 31 65 38 35 66 66 38 62 66 63 66   ae1061e85ff8bfcf
0x7fe9eff771d6  36 35 61 30 30 5c 22 3b 7d 27 00 24 09 d7 8d a5   65a00\";}'.$....
0x7fe9eff771e6  76 d2 81 00 00 00 00 00 00 00 30 4b c8 ef e9 7f   v.........0K....
0x7fe9eff771f6  00 00 48 00 00 00 00 00 00 00 41 06 00 00 00 00   ..H.......A.....
0x7fe9eff77206  00 00 00 00 00 00 00 00 00 00 00 00 00 00 00 00   ................
0x7fe9eff77216  00 00 27 74 b8 af 50 4f c4 db 67 b9 59 af 50 4f   ..'t..PO..g.Y.PO
0x7fe9eff77226  c4 db 2e 00 00 00 3e 00 00 00 24 09 d7 8d a5 76   ......>...$....v
0x7fe9eff77236  d2 81 e5 8f 32 49 98 4c 98 6e 91 00 00 00 00 00   ....2I.L.n......
Task: apache2 pid 3014 rule r1 addr 0x7fe9eff79a0f
0x7fe9eff79a0f  31 39 32 2e 31 36 38 2e 31 30 2e 32 2f 00 24 09   192.168.10.2/.$.
0x7fe9eff79a1f  d7 8d a5 76 d2 81 00 00 00 e5 8f 32 49 98 4c 98   ...v.......2I.L.
0x7fe9eff79a2f  6e e0 00 00 00 00 00 00 00 49 00 00 00 00 00 00   n........I......
0x7fe9eff79a3f  00 20 00 00 00 00 00 00 00 f5 13 e5 af 80 09 9d   ................
0x7fe9eff79a4f  c8 cf 0a 72 af 50 4f c4 db 77 75 b8 af 50 4f c4   ...r.PO..wu..PO.
0x7fe9eff79a5f  db 00 00 00 00 06 00 00 00 00 00 00 00 00 00 00   ................
0x7fe9eff79a6f  00 24 09 d7 8d a5 76 d2 81 e5 8f 32 49 98 4c 98   .$....v....2I.L.
0x7fe9eff79a7f  6e 91 00 00 00 00 00 00 00 50 00 00 00 00 00 00   n........P......
0x7fe9eff79a8f  00 5c 00 00 00 00 00 00 00 f5 13 e5 af 80 09 9d   .\..............
0x7fe9eff79a9f  c8 f7 4a 1b 11 81 d1 76 4e 15 00 00 00 50 4f c4   ..J....vN....PO.
0x7fe9eff79aaf  db b8 9a f7 ef e9 7f 00 00 50 9a f7 ef e9 7f 00   .........P......
0x7fe9eff79abf  00 60 9c f7 ef e9 7f 00 00 60 98 f7 ef e9 7f 00   .`.......`......
0x7fe9eff79acf  00 00 00 00 00 00 00 00 00 00 00 00 00 00 00 00   ................
0x7fe9eff79adf  00 48 54 54 50 5f 41 43 43 45 50 54 5f 4c 41 4e   .HTTP_ACCEPT_LAN
0x7fe9eff79aef  47 55 41 47 45 00 00 00 00 00 00 00 00 24 09 d7   GUAGE........$..
0x7fe9eff79aff  8d a5 76 d2 81 e9 7f 00 00 e5 8f 32 49 98 4c 98   ..v........2I.L.
Task: apache2 pid 3014 rule r1 addr 0x7fe9eff79ea8
0x7fe9eff79ea8  31 39 32 2e 31 36 38 2e 31 30 2e 32 00 24 09 d7   192.168.10.2.$..
0x7fe9eff79eb8  8d a5 76 d2 81 76 d2 81 e5 8f 32 49 98 4c 98 6e   ..v..v....2I.L.n
0x7fe9eff79ec8  51 00 00 00 00 00 00 00 a8 01 00 00 00 00 00 00   Q...............
0x7fe9eff79ed8  20 00 00 00 00 00 00 00 f5 13 e5 af 80 09 9d c8   ................
0x7fe9eff79ee8  b0 8c f7 ef e9 7f 00 00 00 00 00 00 e9 7f 00 00   ................
0x7fe9eff79ef8  00 00 00 00 06 00 00 00 00 00 00 00 00 00 00 00   ................
0x7fe9eff79f08  24 09 d7 8d a5 76 d2 81 e5 8f 32 49 98 4c 98 6e   $....v....2I.L.n
0x7fe9eff79f18  89 00 00 00 00 00 00 00 f8 01 00 00 00 00 00 00   ................
0x7fe9eff79f28  57 00 00 00 00 00 00 00 f5 13 e5 af 80 09 9d c8   W...............
0x7fe9eff79f38  14 a4 98 2b 00 6b 17 92 10 00 00 00 50 4f c4 db   ...+.k......PO..
0x7fe9eff79f48  50 9f f7 ef e9 7f 00 00 e8 9e f7 ef e9 7f 00 00   P...............
0x7fe9eff79f58  e8 a0 f7 ef e9 7f 00 00 40 9d f7 ef e9 7f 00 00   ........@.......
0x7fe9eff79f68  38 99 f7 ef e9 7f 00 00 00 00 00 00 00 00 00 00   8...............
0x7fe9eff79f78  48 54 54 50 5f 43 4f 4e 4e 45 43 54 49 4f 4e 00   HTTP_CONNECTION.
0x7fe9eff79f88  00 00 00 00 00 00 00 24 09 d7 8d a5 76 d2 81 00   .......$....v...
0x7fe9eff79f98  e5 8f 32 49 98 4c 98 6e d8 00 00 00 00 00 00 00   ..2I.L.n........
Task: apache2 pid 3014 rule r1 addr 0x7fe9eff7a4a0
0x7fe9eff7a4a0  31 39 32 2e 31 36 38 2e 31 30 2e 32 00 24 09 d7   192.168.10.2.$..
0x7fe9eff7a4b0  8d a5 76 d2 81 76 d2 81 e5 8f 32 49 98 4c 98 6e   ..v..v....2I.L.n
0x7fe9eff7a4c0  39 00 00 00 00 00 00 00 a0 07 00 00 00 00 00 00   9...............
0x7fe9eff7a4d0  06 00 00 00 00 00 00 00 f5 13 e5 af 80 09 9d c8   ................
0x7fe9eff7a4e0  33 39 33 30 36 00 24 09 d7 8d a5 76 d2 81 81 db   39306.$....v....
0x7fe9eff7a4f0  e5 8f 32 49 98 4c 98 6e b1 01 00 00 00 00 00 00   ..2I.L.n........
0x7fe9eff7a500  e8 10 00 00 00 00 00 00 80 01 00 00 00 00 00 00   ................
0x7fe9eff7a510  f5 13 e5 af 80 09 9d c8 38 55 f8 ef e9 7f 00 00   ........8U......
0x7fe9eff7a520  02 00 00 00 50 4f c4 db 72 7e 88 0b 00 00 00 00   ....PO..r~......
0x7fe9eff7a530  c0 aa f7 ef e9 7f 00 00 06 00 00 00 00 00 00 00   ................
0x7fe9eff7a540  db fb 71 d3 b1 d0 00 00 90 a8 f7 ef e9 7f 00 00   ..q.............
0x7fe9eff7a550  06 00 00 00 00 00 00 00 33 b1 83 c2 b5 d0 00 00   ........3.......
0x7fe9eff7a560  00 59 f8 ef e9 7f 00 00 0b 00 00 00 00 00 00 00   .Y..............
0x7fe9eff7a570  19 66 00 bd 30 cf 6f ce a0 95 f7 ef e9 7f 00 00   .f..0.o.........
0x7fe9eff7a580  00 00 00 00 e9 7f 00 00 02 00 00 00 06 01 00 00   ................
0x7fe9eff7a590  01 00 00 00 e9 7f 00 00 10 96 f7 ef e9 7f 00 00   ................
Task: apache2 pid 3014 rule r1 addr 0x7fe9eff82cd2
0x7fe9eff82cd2  31 39 32 2e 31 36 38 2e 31 30 2e 32 20 50 6f 72   192.168.10.2.Por
0x7fe9eff82ce2  74 20 38 30 3c 2f 61 64 64 72 65 73 73 3e 0a 00   t.80</address>..
0x7fe9eff82cf2  24 09 d7 8d a5 76 d2 81 00 00 70 00 00 00 e5 8f   $....v....p.....
0x7fe9eff82d02  32 49 98 4c 98 6e 49 00 00 00 00 00 00 00 c8 00   2I.L.nI.........
0x7fe9eff82d12  00 00 00 00 00 00 17 00 00 00 00 00 00 00 f5 13   ................
0x7fe9eff82d22  e5 af 80 09 9d c8 41 70 61 63 68 65 2f 32 2e 32   ......Apache/2.2
0x7fe9eff82d32  2e 32 32 20 28 55 62 75 6e 74 75 29 00 24 09 d7   .22.(Ubuntu).$..
0x7fe9eff82d42  8d a5 76 d2 81 00 e5 8f 32 49 98 4c 98 6e 08 03   ..v.....2I.L.n..
0x7fe9eff82d52  00 00 00 00 00 00 49 00 00 00 00 00 00 00 20 00   ......I.........
0x7fe9eff82d62  00 00 00 00 00 00 f5 13 e5 af 80 09 9d c8 ff 63   ...............c
0x7fe9eff82d72  72 af 50 4f c4 db ff 63 72 af 50 4f c4 db 10 b6   r.PO...cr.PO....
0x7fe9eff82d82  5c ef e9 7f 00 00 00 00 00 00 00 00 00 00 00 00   \...............
0x7fe9eff82d92  00 00 00 00 00 00 e5 8f 32 49 98 4c 98 6e 89 00   ........2I.L.n..
0x7fe9eff82da2  00 00 00 00 00 00 50 00 00 00 00 00 00 00 58 00   ......P.......X.
0x7fe9eff82db2  00 00 00 00 00 00 f5 13 e5 af 80 09 9d c8 cd 4c   ...............L
0x7fe9eff82dc2  c9 41 b2 4b 4e c4 11 00 00 00 50 4f c4 db d8 2d   .A.KN.....PO...-
Task: apache2 pid 3014 rule r1 addr 0x7fe9eff82e72
0x7fe9eff82e72  31 39 32 2e 31 36 38 2e 31 30 2e 32 20 50 6f 72   192.168.10.2.Por
0x7fe9eff82e82  74 20 38 30 3c 2f 61 64 64 72 65 73 73 3e 0a 00   t.80</address>..
0x7fe9eff82e92  24 09 d7 8d a5 76 d2 81 00 00 00 00 00 00 e5 8f   $....v..........
0x7fe9eff82ea2  32 49 98 4c 98 6e 51 00 00 00 00 00 00 00 58 01   2I.L.nQ.......X.
0x7fe9eff82eb2  00 00 00 00 00 00 20 00 00 00 00 00 00 00 f5 13   ................
0x7fe9eff82ec2  e5 af 80 09 9d c8 48 2e f8 ef e9 7f 00 00 00 00   ......H.........
0x7fe9eff82ed2  00 00 e9 7f 00 00 00 00 00 00 06 00 00 00 00 00   ................
0x7fe9eff82ee2  00 00 00 00 00 00 24 09 d7 8d a5 76 d2 81 e5 8f   ......$....v....
0x7fe9eff82ef2  32 49 98 4c 98 6e 89 00 00 00 00 00 00 00 a8 01   2I.L.n..........
0x7fe9eff82f02  00 00 00 00 00 00 58 00 00 00 00 00 00 00 f5 13   ......X.........
0x7fe9eff82f12  e5 af 80 09 9d c8 cd 4c c9 41 b2 4b 4e c4 11 00   .......L.A.KN...
0x7fe9eff82f22  00 00 50 4f c4 db 30 2f f8 ef e9 7f 00 00 c8 2e   ..PO..0/........
0x7fe9eff82f32  f8 ef e9 7f 00 00 c8 30 f8 ef e9 7f 00 00 30 2b   .......0......0+
0x7fe9eff82f42  f8 ef e9 7f 00 00 00 00 00 00 00 00 00 00 08 48   ...............H
0x7fe9eff82f52  f8 ef e9 7f 00 00 53 45 52 56 45 52 5f 53 49 47   ......SERVER_SIG
0x7fe9eff82f62  4e 41 54 55 52 45 00 01 00 00 00 00 00 00 24 09   NATURE........$.
Task: apache2 pid 3014 rule r1 addr 0x7fe9eff83228
0x7fe9eff83228  31 39 32 2e 31 36 38 2e 31 30 2e 32 00 24 09 d7   192.168.10.2.$..
0x7fe9eff83238  8d a5 76 d2 81 7f 00 00 e5 8f 32 49 98 4c 98 6e   ..v.......2I.L.n
0x7fe9eff83248  51 00 00 00 00 00 00 00 08 06 00 00 00 00 00 00   Q...............
0x7fe9eff83258  20 00 00 00 00 00 00 00 f5 13 e5 af 80 09 9d c8   ................
0x7fe9eff83268  a0 a4 f7 ef e9 7f 00 00 00 00 00 00 e9 7f 00 00   ................
0x7fe9eff83278  00 00 00 00 06 00 00 00 00 00 00 00 00 00 00 00   ................
0x7fe9eff83288  24 09 d7 8d a5 76 d2 81 e5 8f 32 49 98 4c 98 6e   $....v....2I.L.n
0x7fe9eff83298  89 00 00 00 00 00 00 00 58 06 00 00 00 00 00 00   ........X.......
0x7fe9eff832a8  53 00 00 00 00 00 00 00 f5 13 e5 af 80 09 9d c8   S...............
0x7fe9eff832b8  fc ae df cf 00 e9 ae c3 0c 00 00 00 50 4f c4 db   ............PO..
0x7fe9eff832c8  d0 32 f8 ef e9 7f 00 00 68 32 f8 ef e9 7f 00 00   .2......h2......
0x7fe9eff832d8  e8 34 f8 ef e9 7f 00 00 c8 30 f8 ef e9 7f 00 00   .4.......0......
0x7fe9eff832e8  00 00 00 00 00 00 00 00 70 53 f8 ef e9 7f 00 00   ........pS......
0x7fe9eff832f8  53 45 52 56 45 52 5f 4e 41 4d 45 00 e7 c9 65 e6   SERVER_NAME...e.
0x7fe9eff83308  c7 74 b8 24 09 d7 8d a5 76 d2 81 af 50 4f c4 db   .t.$....v...PO..
0x7fe9eff83318  e5 8f 32 49 98 4c 98 6e 41 00 00 00 00 00 00 00   ..2I.L.nA.......
Task: apache2 pid 3014 rule r1 addr 0x7fe9eff83340
0x7fe9eff83340  31 39 32 2e 31 36 38 2e 31 30 2e 32 00 24 09 d7   192.168.10.2.$..
0x7fe9eff83350  8d a5 76 d2 81 7f 00 00 e5 8f 32 49 98 4c 98 6e   ..v.......2I.L.n
0x7fe9eff83360  18 01 00 00 00 00 00 00 41 00 00 00 00 00 00 00   ........A.......
0x7fe9eff83370  20 00 00 00 00 00 00 00 f5 13 e5 af 80 09 9d c8   ................
0x7fe9eff83380  8f 79 72 af 50 4f c4 db 77 dc 52 af 50 4f c4 db   .yr.PO..w.R.PO..
0x7fe9eff83390  00 00 00 00 06 00 00 00 00 00 00 00 00 00 00 00   ................
0x7fe9eff833a0  24 09 d7 8d a5 76 d2 81 e5 8f 32 49 98 4c 98 6e   $....v....2I.L.n
0x7fe9eff833b0  89 00 00 00 00 00 00 00 50 00 00 00 00 00 00 00   ........P.......
0x7fe9eff833c0  53 00 00 00 00 00 00 00 f5 13 e5 af 80 09 9d c8   S...............
0x7fe9eff833d0  f6 f0 f5 ce 00 e9 ae c3 0c 00 00 00 50 4f c4 db   ............PO..
0x7fe9eff833e0  e8 33 f8 ef e9 7f 00 00 80 33 f8 ef e9 7f 00 00   .3.......3......
0x7fe9eff833f0  c0 35 f8 ef e9 7f 00 00 a0 31 f8 ef e9 7f 00 00   .5.......1......
0x7fe9eff83400  00 00 00 00 00 00 00 00 90 51 f8 ef e9 7f 00 00   .........Q......
0x7fe9eff83410  53 45 52 56 45 52 5f 41 44 44 52 00 00 00 00 00   SERVER_ADDR.....
0x7fe9eff83420  52 8f 2f 24 09 d7 8d a5 76 d2 81 78 74 00 bc a6   R./$....v..xt...
0x7fe9eff83430  e5 8f 32 49 98 4c 98 6e 41 00 00 00 00 00 00 00   ..2I.L.nA.......
Task: apache2 pid 3014 rule r1 addr 0x7fe9eff83458
0x7fe9eff83458  31 39 32 2e 31 36 38 2e 31 30 2e 32 30 30 00 24   192.168.10.200.$
0x7fe9eff83468  09 d7 8d a5 76 d2 81 00 e5 8f 32 49 98 4c 98 6e   ....v.....2I.L.n
0x7fe9eff83478  51 00 00 00 00 00 00 00 38 08 00 00 00 00 00 00   Q.......8.......
0x7fe9eff83488  20 00 00 00 00 00 00 00 f5 13 e5 af 80 09 9d c8   ................
0x7fe9eff83498  40 33 f8 ef e9 7f 00 00 00 00 00 00 e9 7f 00 00   @3..............
0x7fe9eff834a8  00 00 00 00 06 00 00 00 00 00 00 00 00 00 00 00   ................
0x7fe9eff834b8  24 09 d7 8d a5 76 d2 81 e5 8f 32 49 98 4c 98 6e   $....v....2I.L.n
0x7fe9eff834c8  89 00 00 00 00 00 00 00 88 08 00 00 00 00 00 00   ................
0x7fe9eff834d8  53 00 00 00 00 00 00 00 f5 13 e5 af 80 09 9d c8   S...............
0x7fe9eff834e8  f6 f0 f5 ce 00 e9 ae c3 0c 00 00 00 50 4f c4 db   ............PO..
0x7fe9eff834f8  00 35 f8 ef e9 7f 00 00 98 34 f8 ef e9 7f 00 00   .5.......4......
0x7fe9eff83508  98 36 f8 ef e9 7f 00 00 b8 32 f8 ef e9 7f 00 00   .6.......2......
0x7fe9eff83518  00 00 00 00 00 00 00 00 a0 52 f8 ef e9 7f 00 00   .........R......
0x7fe9eff83528  53 45 52 56 45 52 5f 41 44 44 52 00 00 00 00 00   SERVER_ADDR.....
0x7fe9eff83538  02 00 00 24 09 d7 8d a5 76 d2 81 0d e7 c9 65 e6   ...$....v.....e.
0x7fe9eff83548  e5 8f 32 49 98 4c 98 6e d8 00 00 00 00 00 00 00   ..2I.L.n........
Task: apache2 pid 3014 rule r1 addr 0x7fe9eff83720
0x7fe9eff83720  31 39 32 2e 31 36 38 2e 31 30 2e 32 30 30 00 24   192.168.10.200.$
0x7fe9eff83730  09 d7 8d a5 76 d2 81 00 e5 8f 32 49 98 4c 98 6e   ....v.....2I.L.n
0x7fe9eff83740  18 01 00 00 00 00 00 00 41 00 00 00 00 00 00 00   ........A.......
0x7fe9eff83750  20 00 00 00 00 00 00 00 f5 13 e5 af 80 09 9d c8   ................
0x7fe9eff83760  df 77 72 af 50 4f c4 db 77 dc 52 af 50 4f c4 db   .wr.PO..w.R.PO..
0x7fe9eff83770  00 00 00 00 06 00 00 00 00 00 00 00 00 00 00 00   ................
0x7fe9eff83780  24 09 d7 8d a5 76 d2 81 e5 8f 32 49 98 4c 98 6e   $....v....2I.L.n
0x7fe9eff83790  89 00 00 00 00 00 00 00 50 00 00 00 00 00 00 00   ........P.......
0x7fe9eff837a0  53 00 00 00 00 00 00 00 f5 13 e5 af 80 09 9d c8   S...............
0x7fe9eff837b0  4b 0a 8d 49 c8 7d fa c2 0c 00 00 00 50 4f c4 db   K..I.}......PO..
0x7fe9eff837c0  c8 37 f8 ef e9 7f 00 00 60 37 f8 ef e9 7f 00 00   .7......`7......
0x7fe9eff837d0  e0 39 f8 ef e9 7f 00 00 c0 35 f8 ef e9 7f 00 00   .9.......5......
0x7fe9eff837e0  00 00 00 00 00 00 00 00 00 00 00 00 00 00 00 00   ................
0x7fe9eff837f0  52 45 4d 4f 54 45 5f 41 44 44 52 00 f0 49 15 72   REMOTE_ADDR..I.r
0x7fe9eff83800  b5 c3 72 24 09 d7 8d a5 76 d2 81 38 dc 61 48 82   ..r$....v..8.aH.
0x7fe9eff83810  e5 8f 32 49 98 4c 98 6e 41 00 00 00 00 00 00 00   ..2I.L.nA.......
Task: apache2 pid 3015 rule r1 addr 0x7fe9ee16c998
0x7fe9ee16c998  31 39 32 2e 31 36 38 2e 31 30 2e 32 00 00 00 00   192.168.10.2....
0x7fe9ee16c9a8  38 30 2e 31 30 33 2e 31 31 39 2e 35 38 00 00 00   80.103.119.58...
0x7fe9ee16c9b8  00 00 00 00 00 00 00 00 00 00 00 00 00 00 00 00   ................
0x7fe9ee16c9c8  10 96 32 ee e9 7f 00 00 00 00 00 00 00 00 00 00   ..2.............
0x7fe9ee16c9d8  38 ca 16 ee e9 7f 00 00 00 00 00 00 00 00 00 00   8...............
0x7fe9ee16c9e8  90 c2 16 ee e9 7f 00 00 00 9c 32 ee e9 7f 00 00   ..........2.....
0x7fe9ee16c9f8  00 00 00 00 00 00 00 00 60 ca 16 ee e9 7f 00 00   ........`.......
0x7fe9ee16ca08  00 00 00 00 00 00 00 00 90 c2 16 ee e9 7f 00 00   ................
0x7fe9ee16ca18  a0 c0 16 ee e9 7f 00 00 90 c2 16 ee e9 7f 00 00   ................
0x7fe9ee16ca28  80 cb 16 ee e9 7f 00 00 f0 ca 16 ee e9 7f 00 00   ................
0x7fe9ee16ca38  b0 da 32 ee e9 7f 00 00 18 ca 16 ee e9 7f 00 00   ..2.............
0x7fe9ee16ca48  00 00 00 00 00 00 00 00 00 00 00 00 00 00 00 00   ................
0x7fe9ee16ca58  90 c2 16 ee e9 7f 00 00 50 e1 32 ee e9 7f 00 00   ........P.2.....
0x7fe9ee16ca68  18 ca 16 ee e9 7f 00 00 00 00 00 00 00 00 00 00   ................
0x7fe9ee16ca78  00 00 00 00 00 00 00 00 90 c2 16 ee e9 7f 00 00   ................
0x7fe9ee16ca88  00 00 00 00 00 00 00 00 00 00 00 00 00 00 00 00   ................
